///////////////////////////////////////////////////////////////////////////////
//
// IAR C/C++ Compiler V9.30.1.3056 for 8051               20/Jun/2016  18:28:42
// Copyright 2004-2015 IAR Systems AB.
// Standalone license - IAR Embedded Workbench for 8051
//
//    Core               =  plain
//    Code model         =  banked
//    Data model         =  large
//    Calling convention =  xdata reentrant
//    Constant location  =  data_rom
//    Dptr setup         =  1,16
//                          
//    Source file        =  
//        H:\WRAT\Project\IotProject\Hardware\IoTGateway\Hardware\cc2530\SourceCode\Components\mt\MT_UART.c
//    Command line       =  
//        -f
//        H:\WRAT\Project\IotProject\Hardware\IoTGateway\Hardware\cc2530\SourceCode\Projects\zstack\HomeAutomation\SampleLight\CC2530DB\..\..\..\Tools\CC2530DB\f8wCoord.cfg
//        (-DCPU32MHZ -DROOT=__near_func -DMAC_CFG_APP_PENDING_QUEUE=TRUE
//        -DMAC_CFG_TX_DATA_MAX=5 -DMAC_CFG_TX_MAX=8 -DMAC_CFG_RX_MAX=5
//        -DZDO_COORDINATOR -DRTR_NWK) -f
//        H:\WRAT\Project\IotProject\Hardware\IoTGateway\Hardware\cc2530\SourceCode\Projects\zstack\HomeAutomation\SampleLight\CC2530DB\..\..\..\Tools\CC2530DB\f8wConfig.cfg
//        (-DZIGBEEPRO -DSECURE=1 -DZG_SECURE_DYNAMIC=0 -DREFLECTOR
//        -DDEFAULT_CHANLIST=0x04000000 -DZDAPP_CONFIG_PAN_ID=0xFFFF
//        -DNWK_START_DELAY=100 -DEXTENDED_JOINING_RANDOM_MASK=0x007F
//        -DBEACON_REQUEST_DELAY=100 -DBEACON_REQ_DELAY_MASK=0x00FF
//        -DLINK_STATUS_JITTER_MASK=0x007F -DROUTE_EXPIRY_TIME=30
//        -DAPSC_ACK_WAIT_DURATION_POLLED=3000 -DNWK_INDIRECT_MSG_TIMEOUT=7
//        -DMAX_RREQ_ENTRIES=8 -DAPSC_MAX_FRAME_RETRIES=3
//        -DNWK_MAX_DATA_RETRIES=2 -DMAX_POLL_FAILURE_RETRIES=2 -DMAX_BCAST=9
//        -DAPS_MAX_GROUPS=16 -DMAX_RTG_ENTRIES=40 -DNWK_MAX_BINDING_ENTRIES=4
//        -DMAX_BINDING_CLUSTER_IDS=4 "-DDEFAULT_KEY={0x01, 0x03, 0x05, 0x07,
//        0x09, 0x0B, 0x0D, 0x0F, 0x00, 0x02, 0x04, 0x06, 0x08, 0x0A, 0x0C,
//        0x0D}" -DMAC_MAX_FRAME_SIZE=116 -DZDNWKMGR_MIN_TRANSMISSIONS=20
//        "-DCONST=const __code" -DGENERIC=__generic -DRFD_RCVC_ALWAYS_ON=FALSE
//        -DPOLL_RATE=1000 -DQUEUED_POLL_RATE=100 -DRESPONSE_POLL_RATE=100
//        -DREJOIN_POLL_RATE=440 -DREJOIN_BACKOFF=900000 -DREJOIN_SCAN=900000)
//        -f
//        H:\WRAT\Project\IotProject\Hardware\IoTGateway\Hardware\cc2530\SourceCode\Projects\zstack\HomeAutomation\SampleLight\CC2530DB\..\..\..\Tools\CC2530DB\f8wZCL.cfg
//        H:\WRAT\Project\IotProject\Hardware\IoTGateway\Hardware\cc2530\SourceCode\Components\mt\MT_UART.c
//        -D SECURE=1 -D TC_LINKKEY_JOIN -D NV_INIT -D NV_RESTORE -D
//        xHOLD_AUTO_START -D ZTOOL_P1 -D MT_TASK -D MT_APP_FUNC -D MT_SYS_FUNC
//        -D MT_ZDO_FUNC -D xLCD_SUPPORTED=DEBUG -D MULTICAST_ENABLED=FALSE -D
//        ZCL_READ -D ZCL_WRITE -D ZCL_REPORT -D ZCL_EZMODE -D ZCL_BASIC -D
//        ZCL_IDENTIFY -D ZCL_ON_OFF -D ZCL_SCENES -D ZCL_GROUPS -D
//        xZCL_LEVEL_CTRL -D ZCL_DIAGNOSTIC -D FEATURE_SYSTEM_STATS -lC
//        H:\WRAT\Project\IotProject\Hardware\IoTGateway\Hardware\cc2530\SourceCode\Projects\zstack\HomeAutomation\SampleLight\CC2530DB\CoordinatorEB\List
//        -lA
//        H:\WRAT\Project\IotProject\Hardware\IoTGateway\Hardware\cc2530\SourceCode\Projects\zstack\HomeAutomation\SampleLight\CC2530DB\CoordinatorEB\List
//        --diag_suppress Pe001,Pa010 -o
//        H:\WRAT\Project\IotProject\Hardware\IoTGateway\Hardware\cc2530\SourceCode\Projects\zstack\HomeAutomation\SampleLight\CC2530DB\CoordinatorEB\Obj
//        -e --debug --core=plain --dptr=16,1 --data_model=large
//        --code_model=banked --calling_convention=xdata_reentrant
//        --place_constants=data_rom --nr_virtual_regs 16 -I
//        H:\WRAT\Project\IotProject\Hardware\IoTGateway\Hardware\cc2530\SourceCode\Projects\zstack\HomeAutomation\SampleLight\CC2530DB\
//        -I
//        H:\WRAT\Project\IotProject\Hardware\IoTGateway\Hardware\cc2530\SourceCode\Projects\zstack\HomeAutomation\SampleLight\CC2530DB\..\Source\
//        -I
//        H:\WRAT\Project\IotProject\Hardware\IoTGateway\Hardware\cc2530\SourceCode\Projects\zstack\HomeAutomation\SampleLight\CC2530DB\..\..\Source\
//        -I
//        H:\WRAT\Project\IotProject\Hardware\IoTGateway\Hardware\cc2530\SourceCode\Projects\zstack\HomeAutomation\SampleLight\CC2530DB\..\..\..\ZMain\TI2530DB\
//        -I
//        H:\WRAT\Project\IotProject\Hardware\IoTGateway\Hardware\cc2530\SourceCode\Projects\zstack\HomeAutomation\SampleLight\CC2530DB\..\..\..\..\..\Components\hal\include\
//        -I
//        H:\WRAT\Project\IotProject\Hardware\IoTGateway\Hardware\cc2530\SourceCode\Projects\zstack\HomeAutomation\SampleLight\CC2530DB\..\..\..\..\..\Components\hal\target\CC2530EB\
//        -I
//        H:\WRAT\Project\IotProject\Hardware\IoTGateway\Hardware\cc2530\SourceCode\Projects\zstack\HomeAutomation\SampleLight\CC2530DB\..\..\..\..\..\Components\mac\include\
//        -I
//        H:\WRAT\Project\IotProject\Hardware\IoTGateway\Hardware\cc2530\SourceCode\Projects\zstack\HomeAutomation\SampleLight\CC2530DB\..\..\..\..\..\Components\mac\high_level\
//        -I
//        H:\WRAT\Project\IotProject\Hardware\IoTGateway\Hardware\cc2530\SourceCode\Projects\zstack\HomeAutomation\SampleLight\CC2530DB\..\..\..\..\..\Components\mac\low_level\srf04\
//        -I
//        H:\WRAT\Project\IotProject\Hardware\IoTGateway\Hardware\cc2530\SourceCode\Projects\zstack\HomeAutomation\SampleLight\CC2530DB\..\..\..\..\..\Components\mac\low_level\srf04\single_chip\
//        -I
//        H:\WRAT\Project\IotProject\Hardware\IoTGateway\Hardware\cc2530\SourceCode\Projects\zstack\HomeAutomation\SampleLight\CC2530DB\..\..\..\..\..\Components\mt\
//        -I
//        H:\WRAT\Project\IotProject\Hardware\IoTGateway\Hardware\cc2530\SourceCode\Projects\zstack\HomeAutomation\SampleLight\CC2530DB\..\..\..\..\..\Components\osal\include\
//        -I
//        H:\WRAT\Project\IotProject\Hardware\IoTGateway\Hardware\cc2530\SourceCode\Projects\zstack\HomeAutomation\SampleLight\CC2530DB\..\..\..\..\..\Components\services\saddr\
//        -I
//        H:\WRAT\Project\IotProject\Hardware\IoTGateway\Hardware\cc2530\SourceCode\Projects\zstack\HomeAutomation\SampleLight\CC2530DB\..\..\..\..\..\Components\services\sdata\
//        -I
//        H:\WRAT\Project\IotProject\Hardware\IoTGateway\Hardware\cc2530\SourceCode\Projects\zstack\HomeAutomation\SampleLight\CC2530DB\..\..\..\..\..\Components\stack\af\
//        -I
//        H:\WRAT\Project\IotProject\Hardware\IoTGateway\Hardware\cc2530\SourceCode\Projects\zstack\HomeAutomation\SampleLight\CC2530DB\..\..\..\..\..\Components\stack\nwk\
//        -I
//        H:\WRAT\Project\IotProject\Hardware\IoTGateway\Hardware\cc2530\SourceCode\Projects\zstack\HomeAutomation\SampleLight\CC2530DB\..\..\..\..\..\Components\stack\sapi\
//        -I
//        H:\WRAT\Project\IotProject\Hardware\IoTGateway\Hardware\cc2530\SourceCode\Projects\zstack\HomeAutomation\SampleLight\CC2530DB\..\..\..\..\..\Components\stack\sec\
//        -I
//        H:\WRAT\Project\IotProject\Hardware\IoTGateway\Hardware\cc2530\SourceCode\Projects\zstack\HomeAutomation\SampleLight\CC2530DB\..\..\..\..\..\Components\stack\sys\
//        -I
//        H:\WRAT\Project\IotProject\Hardware\IoTGateway\Hardware\cc2530\SourceCode\Projects\zstack\HomeAutomation\SampleLight\CC2530DB\..\..\..\..\..\Components\stack\zcl\
//        -I
//        H:\WRAT\Project\IotProject\Hardware\IoTGateway\Hardware\cc2530\SourceCode\Projects\zstack\HomeAutomation\SampleLight\CC2530DB\..\..\..\..\..\Components\stack\zdo\
//        -I
//        H:\WRAT\Project\IotProject\Hardware\IoTGateway\Hardware\cc2530\SourceCode\Projects\zstack\HomeAutomation\SampleLight\CC2530DB\..\..\..\..\..\Components\zmac\
//        -I
//        H:\WRAT\Project\IotProject\Hardware\IoTGateway\Hardware\cc2530\SourceCode\Projects\zstack\HomeAutomation\SampleLight\CC2530DB\..\..\..\..\..\Components\zmac\f8w\
//        -Ohz --require_prototypes
//    List file          =  
//        H:\WRAT\Project\IotProject\Hardware\IoTGateway\Hardware\cc2530\SourceCode\Projects\zstack\HomeAutomation\SampleLight\CC2530DB\CoordinatorEB\List\MT_UART.s51
//
///////////////////////////////////////////////////////////////////////////////

        NAME MT_UART

        RTMODEL "__SystemLibrary", "CLib"
        RTMODEL "__calling_convention", "xdata_reentrant"
        RTMODEL "__code_model", "banked"
        RTMODEL "__core", "plain"
        RTMODEL "__data_model", "large"
        RTMODEL "__dptr_size", "16"
        RTMODEL "__extended_stack", "disabled"
        RTMODEL "__location_for_constants", "data"
        RTMODEL "__number_of_dptrs", "1"
        RTMODEL "__rt_version", "1"

        RSEG DOVERLAY:DATA:NOROOT(0)
        RSEG IOVERLAY:IDATA:NOROOT(0)
        RSEG ISTACK:IDATA:NOROOT(0)
        RSEG PSTACK:XDATA:NOROOT(0)
        RSEG XSTACK:XDATA:NOROOT(0)

        EXTERN ?V0
        EXTERN ?V1
        EXTERN ?V2
        EXTERN ?V3
        EXTERN ?V4
        EXTERN ?V5
        EXTERN ?V6
        EXTERN ?V7
        EXTERN ?V8
        EXTERN ?V9
        EXTERN ?V10
        EXTERN ?V11
        EXTERN ?ALLOC_XSTACK8
        EXTERN ?BANKED_ENTER_XDATA
        EXTERN ?BANKED_LEAVE_XDATA
        EXTERN ?BDISPATCH
        EXTERN ?BRET
        EXTERN ?DEALLOC_XSTACK8
        EXTERN ?XSP
        EXTERN ?XSTACK_DISP0_8
        EXTERN __INIT_XDATA_Z

        PUBLIC `??MT_UartCalcFCS::?relay`
        FUNCTION `??MT_UartCalcFCS::?relay`,0203H
        PUBLIC `??MT_UartInit::?relay`
        FUNCTION `??MT_UartInit::?relay`,0203H
        PUBLIC `??MT_UartProcessZToolData::?relay`
        FUNCTION `??MT_UartProcessZToolData::?relay`,0203H
        PUBLIC `??MT_UartRegisterTaskID::?relay`
        FUNCTION `??MT_UartRegisterTaskID::?relay`,0203H
        PUBLIC `??uartHandleCommand::?relay`
        FUNCTION `??uartHandleCommand::?relay`,0203H
        PUBLIC App_TaskID
        PUBLIC CMD_Token
        PUBLIC FSC_Token
        PUBLIC LEN_Token
        PUBLIC MT_UartCalcFCS
        FUNCTION MT_UartCalcFCS,0203H
        ARGFRAME XSTACK, 11, STACK
        ARGFRAME IOVERLAY, 0, STATIC
        ARGFRAME DOVERLAY, 0, STATIC
        LOCFRAME ISTACK, 2, STACK
        PUBLIC MT_UartInit
        FUNCTION MT_UartInit,021203H
        ARGFRAME XSTACK, 0, STACK
        LOCFRAME ISTACK, 2, STACK
        LOCFRAME XSTACK, 29, STACK
        PUBLIC MT_UartProcessZToolData
        FUNCTION MT_UartProcessZToolData,0a1203H
        ARGFRAME XSTACK, 0, STACK
        LOCFRAME ISTACK, 1, STACK
        LOCFRAME XSTACK, 11, STACK
        PUBLIC MT_UartRegisterTaskID
        FUNCTION MT_UartRegisterTaskID,0203H
        ARGFRAME XSTACK, 0, STACK
        LOCFRAME ISTACK, 2, STACK
        PUBLIC args
        PUBLIC pMsg
        PUBLIC state
        PUBLIC tempDataLen
        PUBLIC uartHandleCommand
        FUNCTION uartHandleCommand,0a1603H
        ARGFRAME XSTACK, 0, STACK
        LOCFRAME ISTACK, 1, STACK
        LOCFRAME XSTACK, 40, STACK
        
          CFI Names cfiNames0
          CFI StackFrame CFA_SP SP IDATA
          CFI StackFrame CFA_PSP16 PSP16 XDATA
          CFI StackFrame CFA_XSP16 XSP16 XDATA
          CFI StaticOverlayFrame CFA_IOVERLAY IOVERLAY
          CFI StaticOverlayFrame CFA_DOVERLAY DOVERLAY
          CFI Resource `PSW.CY`:1, `B.BR0`:1, `B.BR1`:1, `B.BR2`:1, `B.BR3`:1
          CFI Resource `B.BR4`:1, `B.BR5`:1, `B.BR6`:1, `B.BR7`:1, `VB.BR8`:1
          CFI Resource `VB.BR9`:1, `VB.BR10`:1, `VB.BR11`:1, `VB.BR12`:1
          CFI Resource `VB.BR13`:1, `VB.BR14`:1, `VB.BR15`:1, VB:8, B:8, A:8
          CFI Resource PSW:8, DPL0:8, DPH0:8, R0:8, R1:8, R2:8, R3:8, R4:8, R5:8
          CFI Resource R6:8, R7:8, V0:8, V1:8, V2:8, V3:8, V4:8, V5:8, V6:8, V7:8
          CFI Resource V8:8, V9:8, V10:8, V11:8, V12:8, V13:8, V14:8, V15:8, SP:8
          CFI Resource PSPH:8, PSPL:8, PSP16:16, XSPH:8, XSPL:8, XSP16:16
          CFI VirtualResource ?RET:24
          CFI Resource ?BRET_EXT:8
          CFI VirtualResource ?RET_HIGH:8, ?RET_LOW:8
          CFI ResourceParts PSP16 PSPH, PSPL
          CFI ResourceParts XSP16 XSPH, XSPL
          CFI ResourceParts ?RET ?BRET_EXT, ?RET_HIGH, ?RET_LOW
          CFI EndNames cfiNames0
        
          CFI Common cfiCommon0 Using cfiNames0
          CFI CodeAlign 1
          CFI DataAlign -1
          CFI ReturnAddress ?RET CODE
          CFI CFA_DOVERLAY Used
          CFI CFA_IOVERLAY Used
          CFI CFA_SP SP+-3
          CFI CFA_PSP16 PSP16+0
          CFI CFA_XSP16 XSP16+0
          CFI `PSW.CY` SameValue
          CFI `B.BR0` SameValue
          CFI `B.BR1` SameValue
          CFI `B.BR2` SameValue
          CFI `B.BR3` SameValue
          CFI `B.BR4` SameValue
          CFI `B.BR5` SameValue
          CFI `B.BR6` SameValue
          CFI `B.BR7` SameValue
          CFI `VB.BR8` SameValue
          CFI `VB.BR9` SameValue
          CFI `VB.BR10` SameValue
          CFI `VB.BR11` SameValue
          CFI `VB.BR12` SameValue
          CFI `VB.BR13` SameValue
          CFI `VB.BR14` SameValue
          CFI `VB.BR15` SameValue
          CFI VB SameValue
          CFI B Undefined
          CFI A Undefined
          CFI PSW SameValue
          CFI DPL0 SameValue
          CFI DPH0 SameValue
          CFI R0 Undefined
          CFI R1 Undefined
          CFI R2 Undefined
          CFI R3 Undefined
          CFI R4 Undefined
          CFI R5 Undefined
          CFI R6 SameValue
          CFI R7 SameValue
          CFI V0 SameValue
          CFI V1 SameValue
          CFI V2 SameValue
          CFI V3 SameValue
          CFI V4 SameValue
          CFI V5 SameValue
          CFI V6 SameValue
          CFI V7 SameValue
          CFI V8 SameValue
          CFI V9 SameValue
          CFI V10 SameValue
          CFI V11 SameValue
          CFI V12 SameValue
          CFI V13 SameValue
          CFI V14 SameValue
          CFI V15 SameValue
          CFI PSPH Undefined
          CFI PSPL Undefined
          CFI XSPH Undefined
          CFI XSPL Undefined
          CFI ?RET Concat
          CFI ?BRET_EXT Frame(CFA_SP, 3)
          CFI ?RET_HIGH Frame(CFA_SP, 2)
          CFI ?RET_LOW Frame(CFA_SP, 1)
          CFI EndCommon cfiCommon0
        
        
          CFI Common cfiCommon1 Using cfiNames0
          CFI CodeAlign 1
          CFI DataAlign -1
          CFI ReturnAddress ?RET CODE
          CFI CFA_DOVERLAY Used
          CFI CFA_IOVERLAY Used
          CFI CFA_SP SP+-2
          CFI CFA_PSP16 PSP16+0
          CFI CFA_XSP16 XSP16+0
          CFI `PSW.CY` SameValue
          CFI `B.BR0` SameValue
          CFI `B.BR1` SameValue
          CFI `B.BR2` SameValue
          CFI `B.BR3` SameValue
          CFI `B.BR4` SameValue
          CFI `B.BR5` SameValue
          CFI `B.BR6` SameValue
          CFI `B.BR7` SameValue
          CFI `VB.BR8` SameValue
          CFI `VB.BR9` SameValue
          CFI `VB.BR10` SameValue
          CFI `VB.BR11` SameValue
          CFI `VB.BR12` SameValue
          CFI `VB.BR13` SameValue
          CFI `VB.BR14` SameValue
          CFI `VB.BR15` SameValue
          CFI VB SameValue
          CFI B SameValue
          CFI A SameValue
          CFI PSW SameValue
          CFI DPL0 SameValue
          CFI DPH0 SameValue
          CFI R0 SameValue
          CFI R1 SameValue
          CFI R2 SameValue
          CFI R3 SameValue
          CFI R4 SameValue
          CFI R5 SameValue
          CFI R6 SameValue
          CFI R7 SameValue
          CFI V0 SameValue
          CFI V1 SameValue
          CFI V2 SameValue
          CFI V3 SameValue
          CFI V4 SameValue
          CFI V5 SameValue
          CFI V6 SameValue
          CFI V7 SameValue
          CFI V8 SameValue
          CFI V9 SameValue
          CFI V10 SameValue
          CFI V11 SameValue
          CFI V12 SameValue
          CFI V13 SameValue
          CFI V14 SameValue
          CFI V15 SameValue
          CFI PSPH Undefined
          CFI PSPL Undefined
          CFI XSPH Undefined
          CFI XSPL Undefined
          CFI ?RET Concat
          CFI ?BRET_EXT SameValue
          CFI ?RET_HIGH Frame(CFA_SP, 2)
          CFI ?RET_LOW Frame(CFA_SP, 1)
          CFI EndCommon cfiCommon1
        
HalUARTOpen         SYMBOL "HalUARTOpen"
`??HalUARTOpen::?relay` SYMBOL "?relay", HalUARTOpen
HalUARTRead         SYMBOL "HalUARTRead"
`??HalUARTRead::?relay` SYMBOL "?relay", HalUARTRead
HalUARTWrite        SYMBOL "HalUARTWrite"
`??HalUARTWrite::?relay` SYMBOL "?relay", HalUARTWrite
Hal_UART_RxBufLen   SYMBOL "Hal_UART_RxBufLen"
`??Hal_UART_RxBufLen::?relay` SYMBOL "?relay", Hal_UART_RxBufLen
ZDP_IEEEAddrReq     SYMBOL "ZDP_IEEEAddrReq"
`??ZDP_IEEEAddrReq::?relay` SYMBOL "?relay", ZDP_IEEEAddrReq
atoi                SYMBOL "atoi"
`??atoi::?relay`    SYMBOL "?relay", atoi
debug_str           SYMBOL "debug_str"
`??debug_str::?relay` SYMBOL "?relay", debug_str
osal_mem_alloc      SYMBOL "osal_mem_alloc"
`??osal_mem_alloc::?relay` SYMBOL "?relay", osal_mem_alloc
osal_mem_free       SYMBOL "osal_mem_free"
`??osal_mem_free::?relay` SYMBOL "?relay", osal_mem_free
osal_msg_allocate   SYMBOL "osal_msg_allocate"
`??osal_msg_allocate::?relay` SYMBOL "?relay", osal_msg_allocate
osal_msg_deallocate SYMBOL "osal_msg_deallocate"
`??osal_msg_deallocate::?relay` SYMBOL "?relay", osal_msg_deallocate
osal_msg_send       SYMBOL "osal_msg_send"
`??osal_msg_send::?relay` SYMBOL "?relay", osal_msg_send
strcmp              SYMBOL "strcmp"
`??strcmp::?relay`  SYMBOL "?relay", strcmp
strcpy              SYMBOL "strcpy"
`??strcpy::?relay`  SYMBOL "?relay", strcpy
MT_UartCalcFCS      SYMBOL "MT_UartCalcFCS"
`??MT_UartCalcFCS::?relay` SYMBOL "?relay", MT_UartCalcFCS
MT_UartInit         SYMBOL "MT_UartInit"
`??MT_UartInit::?relay` SYMBOL "?relay", MT_UartInit
MT_UartProcessZToolData SYMBOL "MT_UartProcessZToolData"
`??MT_UartProcessZToolData::?relay` SYMBOL "?relay", MT_UartProcessZToolData
MT_UartRegisterTaskID SYMBOL "MT_UartRegisterTaskID"
`??MT_UartRegisterTaskID::?relay` SYMBOL "?relay", MT_UartRegisterTaskID
uartHandleCommand   SYMBOL "uartHandleCommand"
`??uartHandleCommand::?relay` SYMBOL "?relay", uartHandleCommand

        EXTERN `??HalUARTOpen::?relay`
        FUNCTION `??HalUARTOpen::?relay`,00H
        EXTERN `??HalUARTRead::?relay`
        FUNCTION `??HalUARTRead::?relay`,00H
        EXTERN `??HalUARTWrite::?relay`
        FUNCTION `??HalUARTWrite::?relay`,00H
        EXTERN `??Hal_UART_RxBufLen::?relay`
        FUNCTION `??Hal_UART_RxBufLen::?relay`,00H
        EXTERN `??ZDP_IEEEAddrReq::?relay`
        FUNCTION `??ZDP_IEEEAddrReq::?relay`,00H
        EXTERN `??atoi::?relay`
        FUNCTION `??atoi::?relay`,00H
        EXTERN `??debug_str::?relay`
        FUNCTION `??debug_str::?relay`,00H
        EXTERN `??osal_mem_alloc::?relay`
        FUNCTION `??osal_mem_alloc::?relay`,00H
        EXTERN `??osal_mem_free::?relay`
        FUNCTION `??osal_mem_free::?relay`,00H
        EXTERN `??osal_msg_allocate::?relay`
        FUNCTION `??osal_msg_allocate::?relay`,00H
        EXTERN `??osal_msg_deallocate::?relay`
        FUNCTION `??osal_msg_deallocate::?relay`,00H
        EXTERN `??osal_msg_send::?relay`
        FUNCTION `??osal_msg_send::?relay`,00H
        EXTERN `??strcmp::?relay`
        FUNCTION `??strcmp::?relay`,00H
        EXTERN `??strcpy::?relay`
        FUNCTION `??strcpy::?relay`,00H
        EXTERN HalUARTOpen
        FUNCTION HalUARTOpen,0202H
        ARGFRAME ISTACK, 2, STACK
        ARGFRAME PSTACK, 0, STACK
        ARGFRAME XSTACK, 29, STACK
        ARGFRAME IOVERLAY, 0, STATIC
        ARGFRAME DOVERLAY, 0, STATIC
        EXTERN HalUARTRead
        FUNCTION HalUARTRead,0202H
        ARGFRAME ISTACK, 0, STACK
        ARGFRAME PSTACK, 0, STACK
        ARGFRAME XSTACK, 40, STACK
        ARGFRAME IOVERLAY, 0, STATIC
        ARGFRAME DOVERLAY, 0, STATIC
        EXTERN HalUARTWrite
        FUNCTION HalUARTWrite,0202H
        ARGFRAME ISTACK, 0, STACK
        ARGFRAME PSTACK, 0, STACK
        ARGFRAME XSTACK, 40, STACK
        ARGFRAME IOVERLAY, 0, STATIC
        ARGFRAME DOVERLAY, 0, STATIC
        EXTERN Hal_UART_RxBufLen
        FUNCTION Hal_UART_RxBufLen,0202H
        ARGFRAME ISTACK, 0, STACK
        ARGFRAME PSTACK, 0, STACK
        ARGFRAME XSTACK, 40, STACK
        ARGFRAME IOVERLAY, 0, STATIC
        ARGFRAME DOVERLAY, 0, STATIC
        EXTERN ZDP_IEEEAddrReq
        FUNCTION ZDP_IEEEAddrReq,0202H
        ARGFRAME ISTACK, 0, STACK
        ARGFRAME PSTACK, 0, STACK
        ARGFRAME XSTACK, 40, STACK
        ARGFRAME IOVERLAY, 0, STATIC
        ARGFRAME DOVERLAY, 0, STATIC
        EXTERN atoi
        FUNCTION atoi,010202H
        ARGFRAME ISTACK, 0, STACK
        ARGFRAME PSTACK, 0, STACK
        ARGFRAME XSTACK, 40, STACK
        ARGFRAME IOVERLAY, 0, STATIC
        ARGFRAME DOVERLAY, 0, STATIC
        EXTERN debug_str
        FUNCTION debug_str,0202H
        ARGFRAME ISTACK, 0, STACK
        ARGFRAME PSTACK, 0, STACK
        ARGFRAME XSTACK, 40, STACK
        ARGFRAME IOVERLAY, 0, STATIC
        ARGFRAME DOVERLAY, 0, STATIC
        EXTERN osal_mem_alloc
        FUNCTION osal_mem_alloc,0202H
        ARGFRAME ISTACK, 0, STACK
        ARGFRAME PSTACK, 0, STACK
        ARGFRAME XSTACK, 40, STACK
        ARGFRAME IOVERLAY, 0, STATIC
        ARGFRAME DOVERLAY, 0, STATIC
        EXTERN osal_mem_free
        FUNCTION osal_mem_free,0202H
        ARGFRAME ISTACK, 0, STACK
        ARGFRAME PSTACK, 0, STACK
        ARGFRAME XSTACK, 40, STACK
        ARGFRAME IOVERLAY, 0, STATIC
        ARGFRAME DOVERLAY, 0, STATIC
        EXTERN osal_msg_allocate
        FUNCTION osal_msg_allocate,0202H
        ARGFRAME ISTACK, 0, STACK
        ARGFRAME PSTACK, 0, STACK
        ARGFRAME XSTACK, 11, STACK
        ARGFRAME IOVERLAY, 0, STATIC
        ARGFRAME DOVERLAY, 0, STATIC
        EXTERN osal_msg_deallocate
        FUNCTION osal_msg_deallocate,0202H
        ARGFRAME ISTACK, 0, STACK
        ARGFRAME PSTACK, 0, STACK
        ARGFRAME XSTACK, 11, STACK
        ARGFRAME IOVERLAY, 0, STATIC
        ARGFRAME DOVERLAY, 0, STATIC
        EXTERN osal_msg_send
        FUNCTION osal_msg_send,0202H
        ARGFRAME ISTACK, 0, STACK
        ARGFRAME PSTACK, 0, STACK
        ARGFRAME XSTACK, 11, STACK
        ARGFRAME IOVERLAY, 0, STATIC
        ARGFRAME DOVERLAY, 0, STATIC
        EXTERN strcmp
        FUNCTION strcmp,010202H
        ARGFRAME ISTACK, 0, STACK
        ARGFRAME PSTACK, 0, STACK
        ARGFRAME XSTACK, 40, STACK
        ARGFRAME IOVERLAY, 0, STATIC
        ARGFRAME DOVERLAY, 0, STATIC
        EXTERN strcpy
        FUNCTION strcpy,010202H
        ARGFRAME ISTACK, 0, STACK
        ARGFRAME PSTACK, 0, STACK
        ARGFRAME XSTACK, 40, STACK
        ARGFRAME IOVERLAY, 0, STATIC
        ARGFRAME DOVERLAY, 0, STATIC

// H:\WRAT\Project\IotProject\Hardware\IoTGateway\Hardware\cc2530\SourceCode\Components\mt\MT_UART.c
//    1 /***************************************************************************************************
//    2   Filename:       MT_UART.c
//    3   Revised:        $Date: 2009-03-12 16:25:22 -0700 (Thu, 12 Mar 2009) $
//    4   Revision:       $Revision: 19404 $
//    5 
//    6   Description:  This module handles anything dealing with the serial port.
//    7 
//    8   Copyright 2007 Texas Instruments Incorporated. All rights reserved.
//    9 
//   10   IMPORTANT: Your use of this Software is limited to those specific rights
//   11   granted under the terms of a software license agreement between the user
//   12   who downloaded the software, his/her employer (which must be your employer)
//   13   and Texas Instruments Incorporated (the "License").  You may not use this
//   14   Software unless you agree to abide by the terms of the License. The License
//   15   limits your use, and you acknowledge, that the Software may not be modified,
//   16   copied or distributed unless embedded on a Texas Instruments microcontroller
//   17   or used solely and exclusively in conjunction with a Texas Instruments radio
//   18   frequency transceiver, which is integrated into your product.  Other than for
//   19   the foregoing purpose, you may not use, reproduce, copy, prepare derivative
//   20   works of, modify, distribute, perform, display or sell this Software and/or
//   21   its documentation for any purpose.
//   22 
//   23   YOU FURTHER ACKNOWLEDGE AND AGREE THAT THE SOFTWARE AND DOCUMENTATION ARE
//   24   PROVIDED “AS IS” WITHOUT WARRANTY OF ANY KIND, EITHER EXPRESS OR IMPLIED,
//   25   INCLUDING WITHOUT LIMITATION, ANY WARRANTY OF MERCHANTABILITY, TITLE,
//   26   NON-INFRINGEMENT AND FITNESS FOR A PARTICULAR PURPOSE. IN NO EVENT SHALL
//   27   TEXAS INSTRUMENTS OR ITS LICENSORS BE LIABLE OR OBLIGATED UNDER CONTRACT,
//   28   NEGLIGENCE, STRICT LIABILITY, CONTRIBUTION, BREACH OF WARRANTY, OR OTHER
//   29   LEGAL EQUITABLE THEORY ANY DIRECT OR INDIRECT DAMAGES OR EXPENSES
//   30   INCLUDING BUT NOT LIMITED TO ANY INCIDENTAL, SPECIAL, INDIRECT, PUNITIVE
//   31   OR CONSEQUENTIAL DAMAGES, LOST PROFITS OR LOST DATA, COST OF PROCUREMENT
//   32   OF SUBSTITUTE GOODS, TECHNOLOGY, SERVICES, OR ANY CLAIMS BY THIRD PARTIES
//   33   (INCLUDING BUT NOT LIMITED TO ANY DEFENSE THEREOF), OR OTHER SIMILAR COSTS.
//   34 
//   35   Should you have any questions regarding your right to use this Software,
//   36   contact Texas Instruments Incorporated at www.TI.com.
//   37 
//   38 ***************************************************************************************************/
//   39 
//   40 /***************************************************************************************************
//   41  * INCLUDES
//   42  ***************************************************************************************************/
//   43 #include "ZComDef.h"
//   44 #include "OSAL.h"
//   45 #include "hal_uart.h"
//   46 #include "MT.h"
//   47 #include "MT_UART.h"
//   48 #include "OSAL_Memory.h"
//   49 
//   50 #include "string.h"
//   51 #include "DebugTrace.h"
//   52 #include "ZDProfile.h"
//   53 #include "stdlib.h"
//   54 #include "stdio.h"
//   55 
//   56 
//   57 /***************************************************************************************************
//   58  * MACROS
//   59  ***************************************************************************************************/
//   60 
//   61 /***************************************************************************************************
//   62  * CONSTANTS
//   63  ***************************************************************************************************/
//   64 /* State values for ZTool protocal */
//   65 #define SOP_STATE      0x00
//   66 #define CMD_STATE1     0x01
//   67 #define CMD_STATE2     0x02
//   68 #define LEN_STATE      0x03
//   69 #define DATA_STATE     0x04
//   70 #define FCS_STATE      0x05
//   71 
//   72 #define PROCESS_GW_UART_SUCESSS "CMDSUCCESS"
//   73 #define PROCESS_GW_UART_WRONGTYPE "CMDWRONGTYPE"
//   74 
//   75 /***************************************************************************************************
//   76  *                                         GLOBAL VARIABLES
//   77  ***************************************************************************************************/
//   78 /* Used to indentify the application ID for osal task */

        RSEG XDATA_Z:XDATA:NOROOT(0)
        DATA8
//   79 byte App_TaskID;
App_TaskID:
        DS 1
        REQUIRE __INIT_XDATA_Z
//   80 
//   81 /* ZTool protocal parameters */

        RSEG XDATA_Z:XDATA:NOROOT(0)
        DATA8
//   82 uint8 state;
state:
        DS 1
        REQUIRE __INIT_XDATA_Z

        RSEG XDATA_Z:XDATA:NOROOT(0)
        DATA16
//   83 uint8  CMD_Token[2];
CMD_Token:
        DS 2
        REQUIRE __INIT_XDATA_Z

        RSEG XDATA_Z:XDATA:NOROOT(0)
        DATA8
//   84 uint8  LEN_Token;
LEN_Token:
        DS 1
        REQUIRE __INIT_XDATA_Z

        RSEG XDATA_Z:XDATA:NOROOT(0)
        DATA8
//   85 uint8  FSC_Token;
FSC_Token:
        DS 1
        REQUIRE __INIT_XDATA_Z

        RSEG XDATA_Z:XDATA:NOROOT(0)
        DATA16
//   86 mtOSALSerialData_t  *pMsg;
pMsg:
        DS 2
        REQUIRE __INIT_XDATA_Z

        RSEG XDATA_Z:XDATA:NOROOT(0)
        DATA8
//   87 uint8  tempDataLen;
tempDataLen:
        DS 1
        REQUIRE __INIT_XDATA_Z
//   88 

        RSEG XDATA_Z:XDATA:NOROOT(0)
        DATA8
//   89 char * args[10];
args:
        DS 20
        REQUIRE __INIT_XDATA_Z
//   90 
//   91 #if defined (ZAPP_P1) || defined (ZAPP_P2)
//   92 uint16  MT_UartMaxZAppBufLen;
//   93 bool    MT_UartZAppRxStatus;
//   94 #endif
//   95 
//   96 
//   97 //void cicmdOnOff(uint16 destAddr,,char * name,char * strCommand,char * addrType);
//   98 
//   99 /***************************************************************************************************
//  100  *                                          LOCAL FUNCTIONS
//  101  ***************************************************************************************************/
//  102 
//  103 /***************************************************************************************************
//  104  * @fn      MT_UartInit
//  105  *
//  106  * @brief   Initialize MT with UART support
//  107  *
//  108  * @param   None
//  109  *
//  110  * @return  None
//  111 ***************************************************************************************************/

        RSEG BANKED_CODE:CODE:NOROOT(0)
//  112 void MT_UartInit ()
MT_UartInit:
          CFI Block cfiBlock0 Using cfiCommon0
          CFI Function MT_UartInit
        CODE
//  113 {
        FUNCALL MT_UartInit, HalUARTOpen
        LOCFRAME ISTACK, 2, STACK
        LOCFRAME PSTACK, 0, STACK
        LOCFRAME XSTACK, 29, STACK
        LOCFRAME IOVERLAY, 0, STATIC
        LOCFRAME DOVERLAY, 0, STATIC
        ARGFRAME ISTACK, 2, STACK
        ARGFRAME PSTACK, 0, STACK
        ARGFRAME XSTACK, 29, STACK
        ARGFRAME IOVERLAY, 0, STATIC
        ARGFRAME DOVERLAY, 0, STATIC
        PUSH    DPL
          CFI DPL0 Frame(CFA_SP, 4)
          CFI CFA_SP SP+-4
        PUSH    DPH
          CFI DPH0 Frame(CFA_SP, 5)
          CFI CFA_SP SP+-5
        ; Saved register size: 2
        ; Auto size: 29
        MOV     A,#-0x1d
        LCALL   ?ALLOC_XSTACK8
          CFI CFA_XSP16 add(XSP16, 29)
//  114   halUARTCfg_t uartConfig;
//  115 
//  116   /* Initialize APP ID */
//  117   App_TaskID = 0;
        MOV     DPTR,#App_TaskID
        CLR     A
        MOVX    @DPTR,A
//  118 
//  119   /* UART Configuration */
//  120   uartConfig.configured           = TRUE;
        MOV     DPL,?XSP + 0
        MOV     DPH,?XSP + 1
        INC     A
        MOVX    @DPTR,A
//  121   //uartConfig.baudRate             = MT_UART_DEFAULT_BAUDRATE;
//  122   uartConfig.baudRate             = HAL_UART_BR_115200;
        LCALL   ?XSTACK_DISP0_8
        MOV     A,#0x4
        MOVX    @DPTR,A
//  123   uartConfig.flowControl          = FALSE;
        MOV     A,#0x2
        LCALL   ?XSTACK_DISP0_8
        CLR     A
        MOVX    @DPTR,A
//  124   uartConfig.flowControlThreshold = 0;
        MOV     A,#0x3
        LCALL   ?XSTACK_DISP0_8
        CLR     A
        MOVX    @DPTR,A
        INC     DPTR
        MOVX    @DPTR,A
//  125   uartConfig.rx.maxBufSize        = MT_UART_DEFAULT_MAX_RX_BUFF;
        MOV     A,#0xa
        LCALL   ?XSTACK_DISP0_8
        MOV     A,#-0x80
        MOVX    @DPTR,A
        INC     DPTR
        CLR     A
        MOVX    @DPTR,A
//  126   uartConfig.tx.maxBufSize        = MT_UART_DEFAULT_MAX_TX_BUFF;
        MOV     A,#0x12
        LCALL   ?XSTACK_DISP0_8
        MOV     A,#-0x80
        MOVX    @DPTR,A
        INC     DPTR
        CLR     A
        MOVX    @DPTR,A
//  127   uartConfig.idleTimeout          = MT_UART_DEFAULT_IDLE_TIMEOUT;
        MOV     A,#0x5
        LCALL   ?XSTACK_DISP0_8
        MOV     A,#0x6
        MOVX    @DPTR,A
//  128   uartConfig.intEnable            = TRUE;
        MOV     A,#0x16
        LCALL   ?XSTACK_DISP0_8
        MOV     A,#0x1
        MOVX    @DPTR,A
//  129   /*
//  130 #if defined (ZTOOL_P1) || defined (ZTOOL_P2)
//  131   uartConfig.callBackFunc         = MT_UartProcessZToolData;
//  132 #elif defined (ZAPP_P1) || defined (ZAPP_P2)
//  133   uartConfig.callBackFunc         = MT_UartProcessZAppData;
//  134 #else
//  135   uartConfig.callBackFunc         = NULL;
//  136 #endif
//  137   */
//  138   
//  139   uartConfig.callBackFunc         = uartHandleCommand;
        MOV     A,#0x1b
        LCALL   ?XSTACK_DISP0_8
        MOV     A,#`??uartHandleCommand::?relay` & 0xff
        MOVX    @DPTR,A
        INC     DPTR
        MOV     A,#(`??uartHandleCommand::?relay` >> 8) & 0xff
        MOVX    @DPTR,A
//  140   
//  141   /* Start UART */
//  142 #if defined (MT_UART_DEFAULT_PORT)
//  143   HalUARTOpen (MT_UART_DEFAULT_PORT, &uartConfig);
        ; Setup parameters for call to function HalUARTOpen
        MOV     R2,?XSP + 0
        MOV     R3,?XSP + 1
        MOV     R1,#0x0
        LCALL   `??HalUARTOpen::?relay`; Banked call to: HalUARTOpen
//  144 #else
//  145   /* Silence IAR compiler warning */
//  146   (void)uartConfig;
//  147 #endif
//  148 
//  149   /* Initialize for ZApp */
//  150 #if defined (ZAPP_P1) || defined (ZAPP_P2)
//  151   /* Default max bytes that ZAPP can take */
//  152   MT_UartMaxZAppBufLen  = 1;
//  153   MT_UartZAppRxStatus   = MT_UART_ZAPP_RX_READY;
//  154 #endif
//  155 
//  156 }
        MOV     A,#0x1d
        LCALL   ?DEALLOC_XSTACK8
          CFI EndBlock cfiBlock0
        REQUIRE ?Subroutine0
        ; // Fall through to label ?Subroutine0

        RSEG BANKED_CODE:CODE:NOROOT(0)
?Subroutine0:
          CFI Block cfiBlock1 Using cfiCommon0
          CFI NoFunction
          CFI CFA_SP SP+-5
          CFI DPL0 Frame(CFA_SP, 4)
          CFI DPH0 Frame(CFA_SP, 5)
        POP     DPH
          CFI CFA_SP SP+-4
          CFI DPH0 SameValue
        POP     DPL
          CFI CFA_SP SP+-3
          CFI DPL0 SameValue
        LJMP    ?BRET
          CFI EndBlock cfiBlock1
//  157 
//  158 /***************************************************************************************************
//  159  * @fn      MT_SerialRegisterTaskID
//  160  *
//  161  * @brief   This function registers the taskID of the application so it knows
//  162  *          where to send the messages whent they come in.
//  163  *
//  164  * @param   void
//  165  *
//  166  * @return  void
//  167  ***************************************************************************************************/

        RSEG BANKED_CODE:CODE:NOROOT(0)
//  168 void MT_UartRegisterTaskID( byte taskID )
MT_UartRegisterTaskID:
          CFI Block cfiBlock2 Using cfiCommon0
          CFI Function MT_UartRegisterTaskID
        CODE
//  169 {
        PUSH    DPL
          CFI DPL0 Frame(CFA_SP, 4)
          CFI CFA_SP SP+-4
        PUSH    DPH
          CFI DPH0 Frame(CFA_SP, 5)
          CFI CFA_SP SP+-5
        ; Saved register size: 2
        ; Auto size: 0
//  170   App_TaskID = taskID;
        MOV     A,R1
        MOV     DPTR,#App_TaskID
        MOVX    @DPTR,A
//  171 }
        SJMP    ?Subroutine0
          CFI EndBlock cfiBlock2
//  172 

        RSEG BANKED_CODE:CODE:NOROOT(0)
//  173 void uartHandleCommand( uint8 port, uint8 event ){
uartHandleCommand:
          CFI Block cfiBlock3 Using cfiCommon0
          CFI Function uartHandleCommand
        CODE
        FUNCALL uartHandleCommand, Hal_UART_RxBufLen
        LOCFRAME ISTACK, 0, STACK
        LOCFRAME PSTACK, 0, STACK
        LOCFRAME XSTACK, 40, STACK
        LOCFRAME IOVERLAY, 0, STATIC
        LOCFRAME DOVERLAY, 0, STATIC
        ARGFRAME ISTACK, 0, STACK
        ARGFRAME PSTACK, 0, STACK
        ARGFRAME XSTACK, 40, STACK
        ARGFRAME IOVERLAY, 0, STATIC
        ARGFRAME DOVERLAY, 0, STATIC
        FUNCALL uartHandleCommand, osal_mem_alloc
        LOCFRAME ISTACK, 0, STACK
        LOCFRAME PSTACK, 0, STACK
        LOCFRAME XSTACK, 40, STACK
        LOCFRAME IOVERLAY, 0, STATIC
        LOCFRAME DOVERLAY, 0, STATIC
        ARGFRAME ISTACK, 0, STACK
        ARGFRAME PSTACK, 0, STACK
        ARGFRAME XSTACK, 40, STACK
        ARGFRAME IOVERLAY, 0, STATIC
        ARGFRAME DOVERLAY, 0, STATIC
        FUNCALL uartHandleCommand, HalUARTRead
        LOCFRAME ISTACK, 0, STACK
        LOCFRAME PSTACK, 0, STACK
        LOCFRAME XSTACK, 40, STACK
        LOCFRAME IOVERLAY, 0, STATIC
        LOCFRAME DOVERLAY, 0, STATIC
        ARGFRAME ISTACK, 0, STACK
        ARGFRAME PSTACK, 0, STACK
        ARGFRAME XSTACK, 40, STACK
        ARGFRAME IOVERLAY, 0, STATIC
        ARGFRAME DOVERLAY, 0, STATIC
        FUNCALL uartHandleCommand, HalUARTWrite
        LOCFRAME ISTACK, 0, STACK
        LOCFRAME PSTACK, 0, STACK
        LOCFRAME XSTACK, 40, STACK
        LOCFRAME IOVERLAY, 0, STATIC
        LOCFRAME DOVERLAY, 0, STATIC
        ARGFRAME ISTACK, 0, STACK
        ARGFRAME PSTACK, 0, STACK
        ARGFRAME XSTACK, 40, STACK
        ARGFRAME IOVERLAY, 0, STATIC
        ARGFRAME DOVERLAY, 0, STATIC
        FUNCALL uartHandleCommand, osal_mem_alloc
        LOCFRAME ISTACK, 0, STACK
        LOCFRAME PSTACK, 0, STACK
        LOCFRAME XSTACK, 40, STACK
        LOCFRAME IOVERLAY, 0, STATIC
        LOCFRAME DOVERLAY, 0, STATIC
        ARGFRAME ISTACK, 0, STACK
        ARGFRAME PSTACK, 0, STACK
        ARGFRAME XSTACK, 40, STACK
        ARGFRAME IOVERLAY, 0, STATIC
        ARGFRAME DOVERLAY, 0, STATIC
        FUNCALL uartHandleCommand, strcpy
        LOCFRAME ISTACK, 0, STACK
        LOCFRAME PSTACK, 0, STACK
        LOCFRAME XSTACK, 40, STACK
        LOCFRAME IOVERLAY, 0, STATIC
        LOCFRAME DOVERLAY, 0, STATIC
        ARGFRAME ISTACK, 0, STACK
        ARGFRAME PSTACK, 0, STACK
        ARGFRAME XSTACK, 40, STACK
        ARGFRAME IOVERLAY, 0, STATIC
        ARGFRAME DOVERLAY, 0, STATIC
        FUNCALL uartHandleCommand, osal_mem_alloc
        LOCFRAME ISTACK, 0, STACK
        LOCFRAME PSTACK, 0, STACK
        LOCFRAME XSTACK, 40, STACK
        LOCFRAME IOVERLAY, 0, STATIC
        LOCFRAME DOVERLAY, 0, STATIC
        ARGFRAME ISTACK, 0, STACK
        ARGFRAME PSTACK, 0, STACK
        ARGFRAME XSTACK, 40, STACK
        ARGFRAME IOVERLAY, 0, STATIC
        ARGFRAME DOVERLAY, 0, STATIC
        FUNCALL uartHandleCommand, strcpy
        LOCFRAME ISTACK, 0, STACK
        LOCFRAME PSTACK, 0, STACK
        LOCFRAME XSTACK, 40, STACK
        LOCFRAME IOVERLAY, 0, STATIC
        LOCFRAME DOVERLAY, 0, STATIC
        ARGFRAME ISTACK, 0, STACK
        ARGFRAME PSTACK, 0, STACK
        ARGFRAME XSTACK, 40, STACK
        ARGFRAME IOVERLAY, 0, STATIC
        ARGFRAME DOVERLAY, 0, STATIC
        FUNCALL uartHandleCommand, debug_str
        LOCFRAME ISTACK, 0, STACK
        LOCFRAME PSTACK, 0, STACK
        LOCFRAME XSTACK, 40, STACK
        LOCFRAME IOVERLAY, 0, STATIC
        LOCFRAME DOVERLAY, 0, STATIC
        ARGFRAME ISTACK, 0, STACK
        ARGFRAME PSTACK, 0, STACK
        ARGFRAME XSTACK, 40, STACK
        ARGFRAME IOVERLAY, 0, STATIC
        ARGFRAME DOVERLAY, 0, STATIC
        FUNCALL uartHandleCommand, strcmp
        LOCFRAME ISTACK, 0, STACK
        LOCFRAME PSTACK, 0, STACK
        LOCFRAME XSTACK, 40, STACK
        LOCFRAME IOVERLAY, 0, STATIC
        LOCFRAME DOVERLAY, 0, STATIC
        ARGFRAME ISTACK, 0, STACK
        ARGFRAME PSTACK, 0, STACK
        ARGFRAME XSTACK, 40, STACK
        ARGFRAME IOVERLAY, 0, STATIC
        ARGFRAME DOVERLAY, 0, STATIC
        FUNCALL uartHandleCommand, strcmp
        LOCFRAME ISTACK, 0, STACK
        LOCFRAME PSTACK, 0, STACK
        LOCFRAME XSTACK, 40, STACK
        LOCFRAME IOVERLAY, 0, STATIC
        LOCFRAME DOVERLAY, 0, STATIC
        ARGFRAME ISTACK, 0, STACK
        ARGFRAME PSTACK, 0, STACK
        ARGFRAME XSTACK, 40, STACK
        ARGFRAME IOVERLAY, 0, STATIC
        ARGFRAME DOVERLAY, 0, STATIC
        FUNCALL uartHandleCommand, atoi
        LOCFRAME ISTACK, 0, STACK
        LOCFRAME PSTACK, 0, STACK
        LOCFRAME XSTACK, 40, STACK
        LOCFRAME IOVERLAY, 0, STATIC
        LOCFRAME DOVERLAY, 0, STATIC
        ARGFRAME ISTACK, 0, STACK
        ARGFRAME PSTACK, 0, STACK
        ARGFRAME XSTACK, 40, STACK
        ARGFRAME IOVERLAY, 0, STATIC
        ARGFRAME DOVERLAY, 0, STATIC
        FUNCALL uartHandleCommand, ZDP_IEEEAddrReq
        LOCFRAME ISTACK, 0, STACK
        LOCFRAME PSTACK, 0, STACK
        LOCFRAME XSTACK, 40, STACK
        LOCFRAME IOVERLAY, 0, STATIC
        LOCFRAME DOVERLAY, 0, STATIC
        ARGFRAME ISTACK, 0, STACK
        ARGFRAME PSTACK, 0, STACK
        ARGFRAME XSTACK, 40, STACK
        ARGFRAME IOVERLAY, 0, STATIC
        ARGFRAME DOVERLAY, 0, STATIC
        FUNCALL uartHandleCommand, strcmp
        LOCFRAME ISTACK, 0, STACK
        LOCFRAME PSTACK, 0, STACK
        LOCFRAME XSTACK, 40, STACK
        LOCFRAME IOVERLAY, 0, STATIC
        LOCFRAME DOVERLAY, 0, STATIC
        ARGFRAME ISTACK, 0, STACK
        ARGFRAME PSTACK, 0, STACK
        ARGFRAME XSTACK, 40, STACK
        ARGFRAME IOVERLAY, 0, STATIC
        ARGFRAME DOVERLAY, 0, STATIC
        FUNCALL uartHandleCommand, atoi
        LOCFRAME ISTACK, 0, STACK
        LOCFRAME PSTACK, 0, STACK
        LOCFRAME XSTACK, 40, STACK
        LOCFRAME IOVERLAY, 0, STATIC
        LOCFRAME DOVERLAY, 0, STATIC
        ARGFRAME ISTACK, 0, STACK
        ARGFRAME PSTACK, 0, STACK
        ARGFRAME XSTACK, 40, STACK
        ARGFRAME IOVERLAY, 0, STATIC
        ARGFRAME DOVERLAY, 0, STATIC
        FUNCALL uartHandleCommand, atoi
        LOCFRAME ISTACK, 0, STACK
        LOCFRAME PSTACK, 0, STACK
        LOCFRAME XSTACK, 40, STACK
        LOCFRAME IOVERLAY, 0, STATIC
        LOCFRAME DOVERLAY, 0, STATIC
        ARGFRAME ISTACK, 0, STACK
        ARGFRAME PSTACK, 0, STACK
        ARGFRAME XSTACK, 40, STACK
        ARGFRAME IOVERLAY, 0, STATIC
        ARGFRAME DOVERLAY, 0, STATIC
        FUNCALL uartHandleCommand, ZDP_IEEEAddrReq
        LOCFRAME ISTACK, 0, STACK
        LOCFRAME PSTACK, 0, STACK
        LOCFRAME XSTACK, 40, STACK
        LOCFRAME IOVERLAY, 0, STATIC
        LOCFRAME DOVERLAY, 0, STATIC
        ARGFRAME ISTACK, 0, STACK
        ARGFRAME PSTACK, 0, STACK
        ARGFRAME XSTACK, 40, STACK
        ARGFRAME IOVERLAY, 0, STATIC
        ARGFRAME DOVERLAY, 0, STATIC
        FUNCALL uartHandleCommand, osal_mem_free
        LOCFRAME ISTACK, 0, STACK
        LOCFRAME PSTACK, 0, STACK
        LOCFRAME XSTACK, 40, STACK
        LOCFRAME IOVERLAY, 0, STATIC
        LOCFRAME DOVERLAY, 0, STATIC
        ARGFRAME ISTACK, 0, STACK
        ARGFRAME PSTACK, 0, STACK
        ARGFRAME XSTACK, 40, STACK
        ARGFRAME IOVERLAY, 0, STATIC
        ARGFRAME DOVERLAY, 0, STATIC
        REQUIRE ?V0
        REQUIRE ?V1
        REQUIRE ?V2
        REQUIRE ?V3
        REQUIRE ?V4
        REQUIRE ?V5
        REQUIRE ?V6
        REQUIRE ?V7
        REQUIRE ?V8
        REQUIRE ?V9
        REQUIRE ?V10
        REQUIRE ?V11
        MOV     A,#-0x14
        LCALL   ?BANKED_ENTER_XDATA
          CFI DPH0 load(1, XDATA, add(CFA_XSP16, literal(-1)))
          CFI DPL0 load(1, XDATA, add(CFA_XSP16, literal(-2)))
          CFI ?BRET_EXT load(1, XDATA, add(CFA_XSP16, literal(-3)))
          CFI ?RET_HIGH load(1, XDATA, add(CFA_XSP16, literal(-4)))
          CFI ?RET_LOW load(1, XDATA, add(CFA_XSP16, literal(-5)))
          CFI R7 load(1, XDATA, add(CFA_XSP16, literal(-6)))
          CFI V11 load(1, XDATA, add(CFA_XSP16, literal(-7)))
          CFI V10 load(1, XDATA, add(CFA_XSP16, literal(-8)))
          CFI V9 load(1, XDATA, add(CFA_XSP16, literal(-9)))
          CFI V8 load(1, XDATA, add(CFA_XSP16, literal(-10)))
          CFI V7 load(1, XDATA, add(CFA_XSP16, literal(-11)))
          CFI V6 load(1, XDATA, add(CFA_XSP16, literal(-12)))
          CFI V5 load(1, XDATA, add(CFA_XSP16, literal(-13)))
          CFI V4 load(1, XDATA, add(CFA_XSP16, literal(-14)))
          CFI V3 load(1, XDATA, add(CFA_XSP16, literal(-15)))
          CFI V2 load(1, XDATA, add(CFA_XSP16, literal(-16)))
          CFI V1 load(1, XDATA, add(CFA_XSP16, literal(-17)))
          CFI V0 load(1, XDATA, add(CFA_XSP16, literal(-18)))
          CFI VB load(1, XDATA, add(CFA_XSP16, literal(-19)))
          CFI R6 load(1, XDATA, add(CFA_XSP16, literal(-20)))
          CFI CFA_SP SP+0
          CFI CFA_XSP16 add(XSP16, 20)
        ; Saved register size: 20
        ; Auto size: 20
        MOV     A,#-0x14
        LCALL   ?ALLOC_XSTACK8
          CFI CFA_XSP16 add(XSP16, 40)
        MOV     ?V6,R1
        MOV     ?V7,R2
//  174   uint8 *bufferInRx;
//  175   uint8 argBuffer[20];
//  176   int argcount = 0;
        MOV     ?V0,#0x0
        MOV     ?V1,#0x0
//  177   uint8 countArgByteInBufferRx = 0;
        MOV     ?V2,#0x0
//  178   uint16 countByteInRxBuffer = Hal_UART_RxBufLen(port);
        ; Setup parameters for call to function Hal_UART_RxBufLen
        LCALL   `??Hal_UART_RxBufLen::?relay`; Banked call to: Hal_UART_RxBufLen
        MOV     ?V4,R2
        MOV     ?V5,R3
        MOV     R6,?V4
        MOV     R7,?V5
//  179   bufferInRx = osal_mem_alloc(countByteInRxBuffer);
        ; Setup parameters for call to function osal_mem_alloc
        LCALL   `??osal_mem_alloc::?relay`; Banked call to: osal_mem_alloc
        MOV     ?V8,R2
        MOV     ?V9,R3
//  180   HalUARTRead (port, bufferInRx, countByteInRxBuffer);
        ; Setup parameters for call to function HalUARTRead
        MOV     A,R6
        MOV     R4,A
        MOV     A,R7
        MOV     R5,A
        MOV     R1,?V6
        LCALL   `??HalUARTRead::?relay`; Banked call to: HalUARTRead
//  181   
//  182   afStatus_t zdpCmdStatus;
//  183   char test[30];
//  184   
//  185   
//  186   
//  187   //sprintf(bufferSize, "%d", countByteInRxBuffer);
//  188   //_itoa(countByteInRxBuffer,bufferSize,10);
//  189 //  uint8 i;
//  190 //  for (i=0;*bufferInRx+i!='\r';i++)
//  191 //  {
//  192 //    
//  193 //    //HalUARTWrite(MT_UART_DEFAULT_PORT, tempThis, strlen(tempThis));
//  194 //    HalUARTWrite(port, bufferInRx+i, 1);
//  195 //    //debug_str("rx was got somethings");
//  196 //  }
//  197 //  for(uint8 i = 0;i<countByteInRxBuffer;i++){
//  198 //    HalUARTWrite(port, bufferInRx+i, 1);
//  199 //  }
//  200   
//  201   switch(event) {
        MOV     A,?V7
        DEC     A
        JZ      ??uartHandleCommand_0
        DEC     A
        JZ      ??uartHandleCommand_0
        ADD     A,#-0x2
        JZ      $+5
        LJMP    ??uartHandleCommand_1 & 0xFFFF
//  202    case HAL_UART_RX_FULL:
//  203    case HAL_UART_RX_ABOUT_FULL:
//  204    case HAL_UART_RX_TIMEOUT:
//  205      
//  206     for(uint8 i = 0; i<countByteInRxBuffer; i++){
??uartHandleCommand_0:
        MOV     ?V3,#0x0
        SJMP    ??uartHandleCommand_2
//  207       if(bufferInRx[i] != 0x0A) {
//  208        
//  209        if(bufferInRx[i] == ' '){
//  210          argBuffer[countArgByteInBufferRx] = '\0';
//  211          args[argcount] = osal_mem_alloc(countArgByteInBufferRx+1);
//  212          strcpy(args[argcount],argBuffer);
//  213          argcount++;
//  214          countArgByteInBufferRx = 0;
//  215        }else{
//  216          argBuffer[countArgByteInBufferRx] = bufferInRx[i];
//  217          countArgByteInBufferRx++;
//  218        }
//  219       
//  220      }
//  221       else {
//  222         
//  223        argBuffer[countArgByteInBufferRx] = '\0';
//  224        args[argcount] = osal_mem_alloc(countArgByteInBufferRx+1);
//  225        strcpy(args[argcount],argBuffer);
//  226        argcount++;
//  227        countArgByteInBufferRx = 0;
//  228         
//  229       
//  230         for(int k = 0;k < argcount;k++){
//  231            debug_str(args[k]);
//  232          }
//  233         
//  234         
//  235         
//  236         if(!strcmp(args[0],"IEEEREQ")){
//  237           if(!strcmp(args[1],"0")){
//  238             zdpCmdStatus = ZDP_IEEEAddrReq( (uint16)atoi(args[2]), 0, 0, 0);
//  239           }else if(!strcmp(args[1],"1")){
//  240             ZDP_IEEEAddrReq( (uint16)atoi(args[2]), 1, (byte)atoi(args[3]), 0);
//  241           }else{
//  242             HalUARTWrite(MT_UART_DEFAULT_PORT, PROCESS_GW_UART_WRONGTYPE, strlen(PROCESS_GW_UART_WRONGTYPE));
??uartHandleCommand_3:
        ; Setup parameters for call to function HalUARTWrite
        MOV     R4,#0xc
        MOV     R5,#0x0
        MOV     R2,#`?<Constant "CMDWRONGTYPE">` & 0xff
        MOV     R3,#(`?<Constant "CMDWRONGTYPE">` >> 8) & 0xff
        MOV     R1,#0x0
        LCALL   `??HalUARTWrite::?relay`; Banked call to: HalUARTWrite
//  243           }
//  244           //sprintf(test,"zdpCmdStatus : %d",zdpCmdStatus);
//  245           //debug_str(test);
//  246           //debug_str(PROCESS_GW_UART_SUCESSS);
//  247         }
//  248         
//  249         
//  250         
//  251         //reset argcount
//  252         argcount = 0;
??uartHandleCommand_4:
        MOV     ?V0,#0x0
        MOV     ?V1,#0x0
//  253         //free memory
//  254         for(int i = 0; i < argcount; i++){
??uartHandleCommand_5:
        INC     ?V3
??uartHandleCommand_2:
        CLR     C
        MOV     A,?V3
        SUBB    A,R6
        CLR     A
        SUBB    A,R7
        JC      $+5
        LJMP    ??uartHandleCommand_6 & 0xFFFF
        MOV     R4,?V2
        MOV     A,R4
        ADD     A,#0x1
        MOV     R2,A
        CLR     A
        ADDC    A,#0x0
        MOV     R3,A
        MOV     R0,?V3
        MOV     A,?V8
        ADD     A,R0
        MOV     DPL,A
        CLR     A
        ADDC    A,?V9
        MOV     DPH,A
        MOVX    A,@DPTR
        MOV     ?V10,A
        MOV     R0,?V0
        MOV     A,R0
        ADD     A,R0
        MOV     R0,A
        MOV     A,?V1
        RLC     A
        MOV     R1,A
        MOV     A,#args & 0xff
        ADD     A,R0
        MOV     ?V4,A
        MOV     A,#(args >> 8) & 0xff
        ADDC    A,R1
        MOV     ?V5,A
        LCALL   ?Subroutine6 & 0xFFFF
??CrossCallReturnLabel_10:
        MOV     A,#0xa
        XRL     A,?V10
        JZ      ??uartHandleCommand_7
        MOV     A,#0x20
        XRL     A,?V10
        JNZ     ??uartHandleCommand_8
        LCALL   ?Subroutine6 & 0xFFFF
??CrossCallReturnLabel_11:
        CLR     A
        MOVX    @DPTR,A
        ; Setup parameters for call to function osal_mem_alloc
        LCALL   `??osal_mem_alloc::?relay`; Banked call to: osal_mem_alloc
        LCALL   ?Subroutine3 & 0xFFFF
??CrossCallReturnLabel_6:
        LCALL   `??strcpy::?relay`   ; Banked call to: strcpy
        INC     ?V0
        MOV     A,?V0
        JNZ     ??uartHandleCommand_9
        INC     ?V1
??uartHandleCommand_9:
        MOV     ?V2,#0x0
        SJMP    ??uartHandleCommand_5
??uartHandleCommand_8:
        MOV     A,?V10
        MOVX    @DPTR,A
        INC     ?V2
        SJMP    ??uartHandleCommand_5
??uartHandleCommand_7:
        CLR     A
        MOVX    @DPTR,A
        ; Setup parameters for call to function osal_mem_alloc
        LCALL   `??osal_mem_alloc::?relay`; Banked call to: osal_mem_alloc
        LCALL   ?Subroutine3 & 0xFFFF
??CrossCallReturnLabel_7:
        LCALL   `??strcpy::?relay`   ; Banked call to: strcpy
        INC     ?V0
        MOV     A,?V0
        JNZ     ??uartHandleCommand_10
        INC     ?V1
??uartHandleCommand_10:
        MOV     ?V2,#0x0
        MOV     ?V4,#0x0
        MOV     ?V5,#0x0
        SJMP    ??uartHandleCommand_11
??uartHandleCommand_12:
        ; Setup parameters for call to function debug_str
        MOV     R0,?V4
        MOV     A,R0
        ADD     A,R0
        MOV     R0,A
        MOV     A,?V5
        RLC     A
        MOV     R1,A
        MOV     A,#args & 0xff
        ADD     A,R0
        MOV     DPL,A
        MOV     A,#(args >> 8) & 0xff
        ADDC    A,R1
        MOV     DPH,A
        LCALL   ??Subroutine10_0 & 0xFFFF
??CrossCallReturnLabel_18:
        LCALL   `??debug_str::?relay`; Banked call to: debug_str
        INC     ?V4
        MOV     A,?V4
        JNZ     ??uartHandleCommand_11
        INC     ?V5
??uartHandleCommand_11:
        CLR     C
        MOV     A,?V4
        SUBB    A,?V0
        MOV     A,?V5
        SUBB    A,?V1
        MOV     C,0xD0 /* PSW */.2
        XRL     A,PSW
        RLC     A
        JC      ??uartHandleCommand_12
        ; Setup parameters for call to function strcmp
        MOV     R4,#`?<Constant "IEEEREQ">` & 0xff
        MOV     R5,#(`?<Constant "IEEEREQ">` >> 8) & 0xff
        MOV     DPTR,#args
        LCALL   ??Subroutine10_0 & 0xFFFF
??CrossCallReturnLabel_19:
        LCALL   `??strcmp::?relay`   ; Banked call to: strcmp
        MOV     ?V1,R3
        MOV     A,R2
        ORL     A,?V1
        JZ      $+5
        LJMP    ??uartHandleCommand_4 & 0xFFFF
        MOV     DPTR,#args + 2
        MOVX    A,@DPTR
        MOV     ?V0,A
        INC     DPTR
        MOVX    A,@DPTR
        MOV     ?V1,A
        ; Setup parameters for call to function strcmp
        MOV     R4,#`?<Constant "0">` & 0xff
        MOV     R5,#(`?<Constant "0">` >> 8) & 0xff
        MOV     R2,?V0
        MOV     R3,A
        LCALL   `??strcmp::?relay`   ; Banked call to: strcmp
        MOV     ?V5,R3
        MOV     A,R2
        ORL     A,?V5
        JNZ     ??uartHandleCommand_13
        ; Setup parameters for call to function atoi
        LCALL   ?Subroutine5 & 0xFFFF
??CrossCallReturnLabel_24:
        LCALL   `??atoi::?relay`     ; Banked call to: atoi
        ; Setup parameters for call to function ZDP_IEEEAddrReq
        MOV     R5,#0x0
        MOV     R4,#0x0
        MOV     R1,#0x0
??uartHandleCommand_14:
        LCALL   `??ZDP_IEEEAddrReq::?relay`; Banked call to: ZDP_IEEEAddrReq
        LJMP    ??uartHandleCommand_4 & 0xFFFF
??uartHandleCommand_13:
        ; Setup parameters for call to function strcmp
        MOV     R4,#`?<Constant "1">` & 0xff
        MOV     R5,#(`?<Constant "1">` >> 8) & 0xff
        MOV     R2,?V0
        MOV     R3,?V1
        LCALL   `??strcmp::?relay`   ; Banked call to: strcmp
        MOV     ?V1,R3
        MOV     A,R2
        ORL     A,?V1
        JZ      $+5
        LJMP    ??uartHandleCommand_3 & 0xFFFF
        ; Setup parameters for call to function atoi
        MOV     DPTR,#args + 6
        LCALL   ??Subroutine10_0 & 0xFFFF
//  255           osal_mem_free(args[i]);
//  256         }
//  257         
//  258       }
//  259     
//  260   }
??CrossCallReturnLabel_20:
        LCALL   `??atoi::?relay`     ; Banked call to: atoi
        MOV     ?V0,R2
        ; Setup parameters for call to function atoi
        LCALL   ?Subroutine5 & 0xFFFF
??CrossCallReturnLabel_25:
        LCALL   `??atoi::?relay`     ; Banked call to: atoi
        ; Setup parameters for call to function ZDP_IEEEAddrReq
        MOV     R5,#0x0
        MOV     R4,?V0
        MOV     R1,#0x1
        SJMP    ??uartHandleCommand_14
//  261   
//  262   //free memory
//  263   osal_mem_free(bufferInRx);
??uartHandleCommand_6:
        ; Setup parameters for call to function osal_mem_free
        MOV     R2,?V8
        MOV     R3,?V9
        LCALL   `??osal_mem_free::?relay`; Banked call to: osal_mem_free
//  264     
//  265    /* for(uint8 i = 0;*(bufferInRx+i)!='\n';i++){
//  266       HalUARTWrite(port, bufferInRx+i, 1);
//  267       
//  268       
//  269       
//  270       
//  271     }*/
//  272      
//  273 //     if(*(bufferInRx+1)=='\r'){
//  274 //      HalUARTWrite(port, bufferInRx+0, 1);
//  275 //      }
//  276 //      else{
//  277 //        debug_str("in there");
//  278 //      }
//  279    break;
//  280   }
//  281 }
??uartHandleCommand_1:
        MOV     A,#0x14
        LCALL   ?DEALLOC_XSTACK8
          CFI CFA_XSP16 add(XSP16, 20)
        MOV     R7,#0xc
        LJMP    ?BANKED_LEAVE_XDATA
          CFI EndBlock cfiBlock3

        RSEG BANKED_CODE:CODE:NOROOT(0)
?Subroutine6:
          CFI Block cfiCond4 Using cfiCommon0
          CFI Function uartHandleCommand
          CFI Conditional ??CrossCallReturnLabel_10
          CFI R6 load(1, XDATA, add(CFA_XSP16, literal(-20)))
          CFI VB load(1, XDATA, add(CFA_XSP16, literal(-19)))
          CFI V0 load(1, XDATA, add(CFA_XSP16, literal(-18)))
          CFI V1 load(1, XDATA, add(CFA_XSP16, literal(-17)))
          CFI V2 load(1, XDATA, add(CFA_XSP16, literal(-16)))
          CFI V3 load(1, XDATA, add(CFA_XSP16, literal(-15)))
          CFI V4 load(1, XDATA, add(CFA_XSP16, literal(-14)))
          CFI V5 load(1, XDATA, add(CFA_XSP16, literal(-13)))
          CFI V6 load(1, XDATA, add(CFA_XSP16, literal(-12)))
          CFI V7 load(1, XDATA, add(CFA_XSP16, literal(-11)))
          CFI V8 load(1, XDATA, add(CFA_XSP16, literal(-10)))
          CFI V9 load(1, XDATA, add(CFA_XSP16, literal(-9)))
          CFI V10 load(1, XDATA, add(CFA_XSP16, literal(-8)))
          CFI V11 load(1, XDATA, add(CFA_XSP16, literal(-7)))
          CFI R7 load(1, XDATA, add(CFA_XSP16, literal(-6)))
          CFI ?RET_LOW load(1, XDATA, add(CFA_XSP16, literal(-5)))
          CFI ?RET_HIGH load(1, XDATA, add(CFA_XSP16, literal(-4)))
          CFI ?BRET_EXT load(1, XDATA, add(CFA_XSP16, literal(-3)))
          CFI DPL0 load(1, XDATA, add(CFA_XSP16, literal(-2)))
          CFI DPH0 load(1, XDATA, add(CFA_XSP16, literal(-1)))
          CFI CFA_SP SP+-2
          CFI CFA_XSP16 add(XSP16, 40)
          CFI Block cfiCond5 Using cfiCommon0
          CFI (cfiCond5) Function uartHandleCommand
          CFI (cfiCond5) Conditional ??CrossCallReturnLabel_11
          CFI (cfiCond5) R6 load(1, XDATA, add(CFA_XSP16, literal(-20)))
          CFI (cfiCond5) VB load(1, XDATA, add(CFA_XSP16, literal(-19)))
          CFI (cfiCond5) V0 load(1, XDATA, add(CFA_XSP16, literal(-18)))
          CFI (cfiCond5) V1 load(1, XDATA, add(CFA_XSP16, literal(-17)))
          CFI (cfiCond5) V2 load(1, XDATA, add(CFA_XSP16, literal(-16)))
          CFI (cfiCond5) V3 load(1, XDATA, add(CFA_XSP16, literal(-15)))
          CFI (cfiCond5) V4 load(1, XDATA, add(CFA_XSP16, literal(-14)))
          CFI (cfiCond5) V5 load(1, XDATA, add(CFA_XSP16, literal(-13)))
          CFI (cfiCond5) V6 load(1, XDATA, add(CFA_XSP16, literal(-12)))
          CFI (cfiCond5) V7 load(1, XDATA, add(CFA_XSP16, literal(-11)))
          CFI (cfiCond5) V8 load(1, XDATA, add(CFA_XSP16, literal(-10)))
          CFI (cfiCond5) V9 load(1, XDATA, add(CFA_XSP16, literal(-9)))
          CFI (cfiCond5) V10 load(1, XDATA, add(CFA_XSP16, literal(-8)))
          CFI (cfiCond5) V11 load(1, XDATA, add(CFA_XSP16, literal(-7)))
          CFI (cfiCond5) R7 load(1, XDATA, add(CFA_XSP16, literal(-6)))
          CFI (cfiCond5) ?RET_LOW load(1, XDATA, add(CFA_XSP16, literal(-5)))
          CFI (cfiCond5) ?RET_HIGH load(1, XDATA, add(CFA_XSP16, literal(-4)))
          CFI (cfiCond5) ?BRET_EXT load(1, XDATA, add(CFA_XSP16, literal(-3)))
          CFI (cfiCond5) DPL0 load(1, XDATA, add(CFA_XSP16, literal(-2)))
          CFI (cfiCond5) DPH0 load(1, XDATA, add(CFA_XSP16, literal(-1)))
          CFI (cfiCond5) CFA_SP SP+-2
          CFI (cfiCond5) CFA_XSP16 add(XSP16, 40)
          CFI Block cfiPicker6 Using cfiCommon1
          CFI (cfiPicker6) NoFunction
          CFI (cfiPicker6) Picker
        MOV     DPL,?XSP + 0
        MOV     DPH,?XSP + 1
        MOV     A,DPL
        ADD     A,R4
        MOV     DPL,A
        CLR     A
        ADDC    A,DPH
        MOV     DPH,A
        RET
          CFI EndBlock cfiCond4
          CFI EndBlock cfiCond5
          CFI EndBlock cfiPicker6

        RSEG BANKED_CODE:CODE:NOROOT(0)
?Subroutine3:
          CFI Block cfiCond7 Using cfiCommon0
          CFI Function uartHandleCommand
          CFI Conditional ??CrossCallReturnLabel_6
          CFI R6 load(1, XDATA, add(CFA_XSP16, literal(-20)))
          CFI VB load(1, XDATA, add(CFA_XSP16, literal(-19)))
          CFI V0 load(1, XDATA, add(CFA_XSP16, literal(-18)))
          CFI V1 load(1, XDATA, add(CFA_XSP16, literal(-17)))
          CFI V2 load(1, XDATA, add(CFA_XSP16, literal(-16)))
          CFI V3 load(1, XDATA, add(CFA_XSP16, literal(-15)))
          CFI V4 load(1, XDATA, add(CFA_XSP16, literal(-14)))
          CFI V5 load(1, XDATA, add(CFA_XSP16, literal(-13)))
          CFI V6 load(1, XDATA, add(CFA_XSP16, literal(-12)))
          CFI V7 load(1, XDATA, add(CFA_XSP16, literal(-11)))
          CFI V8 load(1, XDATA, add(CFA_XSP16, literal(-10)))
          CFI V9 load(1, XDATA, add(CFA_XSP16, literal(-9)))
          CFI V10 load(1, XDATA, add(CFA_XSP16, literal(-8)))
          CFI V11 load(1, XDATA, add(CFA_XSP16, literal(-7)))
          CFI R7 load(1, XDATA, add(CFA_XSP16, literal(-6)))
          CFI ?RET_LOW load(1, XDATA, add(CFA_XSP16, literal(-5)))
          CFI ?RET_HIGH load(1, XDATA, add(CFA_XSP16, literal(-4)))
          CFI ?BRET_EXT load(1, XDATA, add(CFA_XSP16, literal(-3)))
          CFI DPL0 load(1, XDATA, add(CFA_XSP16, literal(-2)))
          CFI DPH0 load(1, XDATA, add(CFA_XSP16, literal(-1)))
          CFI CFA_SP SP+-2
          CFI CFA_XSP16 add(XSP16, 40)
          CFI Block cfiCond8 Using cfiCommon0
          CFI (cfiCond8) Function uartHandleCommand
          CFI (cfiCond8) Conditional ??CrossCallReturnLabel_7
          CFI (cfiCond8) R6 load(1, XDATA, add(CFA_XSP16, literal(-20)))
          CFI (cfiCond8) VB load(1, XDATA, add(CFA_XSP16, literal(-19)))
          CFI (cfiCond8) V0 load(1, XDATA, add(CFA_XSP16, literal(-18)))
          CFI (cfiCond8) V1 load(1, XDATA, add(CFA_XSP16, literal(-17)))
          CFI (cfiCond8) V2 load(1, XDATA, add(CFA_XSP16, literal(-16)))
          CFI (cfiCond8) V3 load(1, XDATA, add(CFA_XSP16, literal(-15)))
          CFI (cfiCond8) V4 load(1, XDATA, add(CFA_XSP16, literal(-14)))
          CFI (cfiCond8) V5 load(1, XDATA, add(CFA_XSP16, literal(-13)))
          CFI (cfiCond8) V6 load(1, XDATA, add(CFA_XSP16, literal(-12)))
          CFI (cfiCond8) V7 load(1, XDATA, add(CFA_XSP16, literal(-11)))
          CFI (cfiCond8) V8 load(1, XDATA, add(CFA_XSP16, literal(-10)))
          CFI (cfiCond8) V9 load(1, XDATA, add(CFA_XSP16, literal(-9)))
          CFI (cfiCond8) V10 load(1, XDATA, add(CFA_XSP16, literal(-8)))
          CFI (cfiCond8) V11 load(1, XDATA, add(CFA_XSP16, literal(-7)))
          CFI (cfiCond8) R7 load(1, XDATA, add(CFA_XSP16, literal(-6)))
          CFI (cfiCond8) ?RET_LOW load(1, XDATA, add(CFA_XSP16, literal(-5)))
          CFI (cfiCond8) ?RET_HIGH load(1, XDATA, add(CFA_XSP16, literal(-4)))
          CFI (cfiCond8) ?BRET_EXT load(1, XDATA, add(CFA_XSP16, literal(-3)))
          CFI (cfiCond8) DPL0 load(1, XDATA, add(CFA_XSP16, literal(-2)))
          CFI (cfiCond8) DPH0 load(1, XDATA, add(CFA_XSP16, literal(-1)))
          CFI (cfiCond8) CFA_SP SP+-2
          CFI (cfiCond8) CFA_XSP16 add(XSP16, 40)
          CFI Block cfiPicker9 Using cfiCommon1
          CFI (cfiPicker9) NoFunction
          CFI (cfiPicker9) Picker
        MOV     DPL,?V4
        MOV     DPH,?V5
        MOV     A,R2
        MOVX    @DPTR,A
        INC     DPTR
        MOV     A,R3
        MOVX    @DPTR,A
        ; Setup parameters for call to function strcpy
        ; Setup parameters for call to function strcpy
        MOV     R4,?XSP + 0
        MOV     R5,?XSP + 1
        RET
          CFI EndBlock cfiCond7
          CFI EndBlock cfiCond8
          CFI EndBlock cfiPicker9
//  282 
//  283 
//  284 
//  285 
//  286 
//  287 /***************************************************************************************************
//  288  * @fn      SPIMgr_CalcFCS
//  289  *
//  290  * @brief   Calculate the FCS of a message buffer by XOR'ing each byte.
//  291  *          Remember to NOT include SOP and FCS fields, so start at the CMD field.
//  292  *
//  293  * @param   byte *msg_ptr - message pointer
//  294  * @param   byte len - length (in bytes) of message
//  295  *
//  296  * @return  result byte
//  297  ***************************************************************************************************/

        RSEG BANKED_CODE:CODE:NOROOT(0)
//  298 byte MT_UartCalcFCS( uint8 *msg_ptr, uint8 len )
MT_UartCalcFCS:
          CFI Block cfiBlock10 Using cfiCommon0
          CFI Function MT_UartCalcFCS
        CODE
//  299 {
        PUSH    DPL
          CFI DPL0 Frame(CFA_SP, 4)
          CFI CFA_SP SP+-4
        PUSH    DPH
          CFI DPH0 Frame(CFA_SP, 5)
          CFI CFA_SP SP+-5
        ; Saved register size: 2
        ; Auto size: 0
        MOV     A,R1
        MOV     R4,A
//  300   byte x;
//  301   byte xorResult;
//  302 
//  303   xorResult = 0;
        MOV     R1,#0x0
//  304 
//  305   for ( x = 0; x < len; x++, msg_ptr++ )
        MOV     R0,#0x0
        SJMP    ??MT_UartCalcFCS_0
//  306     xorResult = xorResult ^ *msg_ptr;
??MT_UartCalcFCS_1:
        MOV     DPL,R2
        MOV     DPH,R3
        MOVX    A,@DPTR
        XCH     A,R1
        XRL     A,R1
        MOV     R1,A
        INC     R0
        INC     DPTR
        MOV     R2,DPL
        MOV     R3,DPH
??MT_UartCalcFCS_0:
        MOV     A,R0
        CLR     C
        SUBB    A,R4
        JC      ??MT_UartCalcFCS_1
//  307 
//  308   return ( xorResult );
        LJMP    ?Subroutine0 & 0xFFFF
//  309 }
          CFI EndBlock cfiBlock10
//  310 
//  311 
//  312 /***************************************************************************************************
//  313  * @fn      MT_UartProcessZToolData
//  314  *
//  315  * @brief   | SOP | Data Length  |   CMD   |   Data   |  FCS  |
//  316  *          |  1  |     1        |    2    |  0-Len   |   1   |
//  317  *
//  318  *          Parses the data and determine either is SPI or just simply serial data
//  319  *          then send the data to correct place (MT or APP)
//  320  *
//  321  * @param   port     - UART port
//  322  *          event    - Event that causes the callback
//  323  *
//  324  *
//  325  * @return  None
//  326  ***************************************************************************************************/

        RSEG BANKED_CODE:CODE:NOROOT(0)
//  327 void MT_UartProcessZToolData ( uint8 port, uint8 event )
MT_UartProcessZToolData:
          CFI Block cfiBlock11 Using cfiCommon0
          CFI Function MT_UartProcessZToolData
        CODE
//  328 {
        FUNCALL MT_UartProcessZToolData, Hal_UART_RxBufLen
        LOCFRAME ISTACK, 0, STACK
        LOCFRAME PSTACK, 0, STACK
        LOCFRAME XSTACK, 11, STACK
        LOCFRAME IOVERLAY, 0, STATIC
        LOCFRAME DOVERLAY, 0, STATIC
        ARGFRAME ISTACK, 0, STACK
        ARGFRAME PSTACK, 0, STACK
        ARGFRAME XSTACK, 11, STACK
        ARGFRAME IOVERLAY, 0, STATIC
        ARGFRAME DOVERLAY, 0, STATIC
        FUNCALL MT_UartProcessZToolData, HalUARTRead
        LOCFRAME ISTACK, 0, STACK
        LOCFRAME PSTACK, 0, STACK
        LOCFRAME XSTACK, 11, STACK
        LOCFRAME IOVERLAY, 0, STATIC
        LOCFRAME DOVERLAY, 0, STATIC
        ARGFRAME ISTACK, 0, STACK
        ARGFRAME PSTACK, 0, STACK
        ARGFRAME XSTACK, 11, STACK
        ARGFRAME IOVERLAY, 0, STATIC
        ARGFRAME DOVERLAY, 0, STATIC
        FUNCALL MT_UartProcessZToolData, osal_msg_allocate
        LOCFRAME ISTACK, 0, STACK
        LOCFRAME PSTACK, 0, STACK
        LOCFRAME XSTACK, 11, STACK
        LOCFRAME IOVERLAY, 0, STATIC
        LOCFRAME DOVERLAY, 0, STATIC
        ARGFRAME ISTACK, 0, STACK
        ARGFRAME PSTACK, 0, STACK
        ARGFRAME XSTACK, 11, STACK
        ARGFRAME IOVERLAY, 0, STATIC
        ARGFRAME DOVERLAY, 0, STATIC
        FUNCALL MT_UartProcessZToolData, Hal_UART_RxBufLen
        LOCFRAME ISTACK, 0, STACK
        LOCFRAME PSTACK, 0, STACK
        LOCFRAME XSTACK, 11, STACK
        LOCFRAME IOVERLAY, 0, STATIC
        LOCFRAME DOVERLAY, 0, STATIC
        ARGFRAME ISTACK, 0, STACK
        ARGFRAME PSTACK, 0, STACK
        ARGFRAME XSTACK, 11, STACK
        ARGFRAME IOVERLAY, 0, STATIC
        ARGFRAME DOVERLAY, 0, STATIC
        FUNCALL MT_UartProcessZToolData, HalUARTRead
        LOCFRAME ISTACK, 0, STACK
        LOCFRAME PSTACK, 0, STACK
        LOCFRAME XSTACK, 11, STACK
        LOCFRAME IOVERLAY, 0, STATIC
        LOCFRAME DOVERLAY, 0, STATIC
        ARGFRAME ISTACK, 0, STACK
        ARGFRAME PSTACK, 0, STACK
        ARGFRAME XSTACK, 11, STACK
        ARGFRAME IOVERLAY, 0, STATIC
        ARGFRAME DOVERLAY, 0, STATIC
        FUNCALL MT_UartProcessZToolData, HalUARTRead
        LOCFRAME ISTACK, 0, STACK
        LOCFRAME PSTACK, 0, STACK
        LOCFRAME XSTACK, 11, STACK
        LOCFRAME IOVERLAY, 0, STATIC
        LOCFRAME DOVERLAY, 0, STATIC
        ARGFRAME ISTACK, 0, STACK
        ARGFRAME PSTACK, 0, STACK
        ARGFRAME XSTACK, 11, STACK
        ARGFRAME IOVERLAY, 0, STATIC
        ARGFRAME DOVERLAY, 0, STATIC
        FUNCALL MT_UartProcessZToolData, MT_UartCalcFCS
        LOCFRAME ISTACK, 0, STACK
        LOCFRAME PSTACK, 0, STACK
        LOCFRAME XSTACK, 11, STACK
        LOCFRAME IOVERLAY, 0, STATIC
        LOCFRAME DOVERLAY, 0, STATIC
        ARGFRAME ISTACK, 0, STACK
        ARGFRAME PSTACK, 0, STACK
        ARGFRAME XSTACK, 11, STACK
        ARGFRAME IOVERLAY, 0, STATIC
        ARGFRAME DOVERLAY, 0, STATIC
        FUNCALL MT_UartProcessZToolData, osal_msg_send
        LOCFRAME ISTACK, 0, STACK
        LOCFRAME PSTACK, 0, STACK
        LOCFRAME XSTACK, 11, STACK
        LOCFRAME IOVERLAY, 0, STATIC
        LOCFRAME DOVERLAY, 0, STATIC
        ARGFRAME ISTACK, 0, STACK
        ARGFRAME PSTACK, 0, STACK
        ARGFRAME XSTACK, 11, STACK
        ARGFRAME IOVERLAY, 0, STATIC
        ARGFRAME DOVERLAY, 0, STATIC
        FUNCALL MT_UartProcessZToolData, osal_msg_deallocate
        LOCFRAME ISTACK, 0, STACK
        LOCFRAME PSTACK, 0, STACK
        LOCFRAME XSTACK, 11, STACK
        LOCFRAME IOVERLAY, 0, STATIC
        LOCFRAME DOVERLAY, 0, STATIC
        ARGFRAME ISTACK, 0, STACK
        ARGFRAME PSTACK, 0, STACK
        ARGFRAME XSTACK, 11, STACK
        ARGFRAME IOVERLAY, 0, STATIC
        ARGFRAME DOVERLAY, 0, STATIC
        REQUIRE ?V0
        REQUIRE ?V1
        MOV     A,#-0xa
        LCALL   ?BANKED_ENTER_XDATA
          CFI DPH0 load(1, XDATA, add(CFA_XSP16, literal(-1)))
          CFI DPL0 load(1, XDATA, add(CFA_XSP16, literal(-2)))
          CFI ?BRET_EXT load(1, XDATA, add(CFA_XSP16, literal(-3)))
          CFI ?RET_HIGH load(1, XDATA, add(CFA_XSP16, literal(-4)))
          CFI ?RET_LOW load(1, XDATA, add(CFA_XSP16, literal(-5)))
          CFI R7 load(1, XDATA, add(CFA_XSP16, literal(-6)))
          CFI V1 load(1, XDATA, add(CFA_XSP16, literal(-7)))
          CFI V0 load(1, XDATA, add(CFA_XSP16, literal(-8)))
          CFI VB load(1, XDATA, add(CFA_XSP16, literal(-9)))
          CFI R6 load(1, XDATA, add(CFA_XSP16, literal(-10)))
          CFI CFA_SP SP+0
          CFI CFA_XSP16 add(XSP16, 10)
        ; Saved register size: 10
        ; Auto size: 1
        MOV     A,#-0x1
        LCALL   ?ALLOC_XSTACK8
          CFI CFA_XSP16 add(XSP16, 11)
        MOV     A,R1
        MOV     R6,A
//  329   uint8  ch;
//  330   uint8  bytesInRxBuffer;
//  331   
//  332   (void)event;  // Intentionally unreferenced parameter
        SJMP    ??MT_UartProcessZToolData_0
//  333 
//  334   while (Hal_UART_RxBufLen(port))
//  335   {
//  336     HalUARTRead (port, &ch, 1);
//  337 
//  338     switch (state)
//  339     {
//  340       case SOP_STATE:
//  341         if (ch == MT_UART_SOF)
//  342           state = LEN_STATE;
//  343         break;
//  344 
//  345       case LEN_STATE:
//  346         LEN_Token = ch;
//  347 
//  348         tempDataLen = 0;
//  349 
//  350         /* Allocate memory for the data */
//  351         pMsg = (mtOSALSerialData_t *)osal_msg_allocate( sizeof ( mtOSALSerialData_t ) +
//  352                                                         MT_RPC_FRAME_HDR_SZ + LEN_Token );
//  353 
//  354         if (pMsg)
//  355         {
//  356           /* Fill up what we can */
//  357           pMsg->hdr.event = CMD_SERIAL_MSG;
??MT_UartProcessZToolData_1:
        MOVX    A,@DPTR
        MOV     DPH,A
        MOV     DPL,R0
        MOV     A,#0x1
        MOVX    @DPTR,A
//  358           pMsg->msg = (uint8*)(pMsg+1);
        MOV     DPTR,#pMsg
        MOVX    A,@DPTR
        ADD     A,#0x4
        MOV     R0,A
        INC     DPTR
        MOVX    A,@DPTR
        ADDC    A,#0x0
        MOV     R1,A
        LCALL   ?Subroutine7 & 0xFFFF
??CrossCallReturnLabel_12:
        MOV     A,R0
        MOVX    @DPTR,A
        INC     DPTR
        MOV     A,R1
        LCALL   ?Subroutine2 & 0xFFFF
//  359           pMsg->msg[MT_RPC_POS_LEN] = LEN_Token;
??CrossCallReturnLabel_2:
        MOV     DPL,R0
        MOV     DPH,R1
        MOVX    @DPTR,A
//  360           state = CMD_STATE1;
        MOV     DPTR,#state
        MOV     A,#0x1
??MT_UartProcessZToolData_2:
        MOVX    @DPTR,A
//  361         }
//  362         else
//  363         {
//  364           state = SOP_STATE;
//  365           return;
//  366         }
//  367         break;
??MT_UartProcessZToolData_0:
        ; Setup parameters for call to function Hal_UART_RxBufLen
        MOV     A,R6
        MOV     R1,A
        LCALL   `??Hal_UART_RxBufLen::?relay`; Banked call to: Hal_UART_RxBufLen
        MOV     ?V1,R3
        MOV     A,R2
        ORL     A,?V1
        JNZ     $+5
        LJMP    ??MT_UartProcessZToolData_3 & 0xFFFF
        ; Setup parameters for call to function HalUARTRead
        MOV     R4,#0x1
        MOV     R5,#0x0
        MOV     R2,?XSP + 0
        MOV     R3,?XSP + 1
        MOV     A,R6
        MOV     R1,A
        LCALL   `??HalUARTRead::?relay`; Banked call to: HalUARTRead
        MOV     DPTR,#state
        MOVX    A,@DPTR
        JZ      ??MT_UartProcessZToolData_4
        DEC     A
        JZ      ??MT_UartProcessZToolData_5
        DEC     A
        JZ      ??MT_UartProcessZToolData_6
        DEC     A
        JZ      ??MT_UartProcessZToolData_7
        DEC     A
        JNZ     $+5
        LJMP    ??MT_UartProcessZToolData_8 & 0xFFFF
        DEC     A
        JNZ     $+5
        LJMP    ??MT_UartProcessZToolData_9 & 0xFFFF
        SJMP    ??MT_UartProcessZToolData_0
??MT_UartProcessZToolData_4:
        MOV     DPL,?XSP + 0
        MOV     DPH,?XSP + 1
        MOVX    A,@DPTR
        XRL     A,#0xfe
        JNZ     ??MT_UartProcessZToolData_0
        MOV     DPTR,#state
        MOV     A,#0x3
        SJMP    ??MT_UartProcessZToolData_2
??MT_UartProcessZToolData_7:
        MOV     DPL,?XSP + 0
        MOV     DPH,?XSP + 1
        MOVX    A,@DPTR
        MOV     DPTR,#LEN_Token
        MOVX    @DPTR,A
        MOV     DPTR,#tempDataLen
        CLR     A
        LCALL   ?Subroutine2 & 0xFFFF
??CrossCallReturnLabel_3:
        ADD     A,#0x7
        MOV     R2,A
        CLR     A
        ADDC    A,#0x0
        MOV     R3,A
        LCALL   `??osal_msg_allocate::?relay`; Banked call to: osal_msg_allocate
        MOV     DPTR,#pMsg
        MOV     A,R2
        MOVX    @DPTR,A
        INC     DPTR
        MOV     A,R3
        MOVX    @DPTR,A
        MOV     DPTR,#pMsg
        MOVX    A,@DPTR
        MOV     R0,A
        INC     DPTR
        MOVX    A,@DPTR
        MOV     R1,A
        MOV     A,R0
        ORL     A,R1
        JZ      $+5
        LJMP    ??MT_UartProcessZToolData_1 & 0xFFFF
        MOV     DPTR,#state
        CLR     A
        MOVX    @DPTR,A
        LJMP    ??MT_UartProcessZToolData_3 & 0xFFFF
//  368 
//  369       case CMD_STATE1:
//  370         pMsg->msg[MT_RPC_POS_CMD0] = ch;
??MT_UartProcessZToolData_5:
        MOV     DPL,?XSP + 0
        MOV     DPH,?XSP + 1
        MOVX    A,@DPTR
        PUSH    A
          CFI CFA_SP SP+-1
        LCALL   ?Subroutine4 & 0xFFFF
??CrossCallReturnLabel_8:
        POP     A
          CFI CFA_SP SP+0
        MOVX    @DPTR,A
//  371         state = CMD_STATE2;
        MOV     DPTR,#state
        MOV     A,#0x2
        LJMP    ??MT_UartProcessZToolData_2 & 0xFFFF
//  372         break;
//  373 
//  374       case CMD_STATE2:
//  375         pMsg->msg[MT_RPC_POS_CMD1] = ch;
??MT_UartProcessZToolData_6:
        MOV     DPL,?XSP + 0
        MOV     DPH,?XSP + 1
        MOVX    A,@DPTR
        PUSH    A
          CFI CFA_SP SP+-1
        LCALL   ?Subroutine4 & 0xFFFF
??CrossCallReturnLabel_9:
        INC     DPTR
        POP     A
          CFI CFA_SP SP+0
        LCALL   ?Subroutine2 & 0xFFFF
//  376         /* If there is no data, skip to FCS state */
//  377         if (LEN_Token)
??CrossCallReturnLabel_4:
        JZ      ??MT_UartProcessZToolData_10
//  378         {
//  379           state = DATA_STATE;
        MOV     DPTR,#state
        MOV     A,#0x4
        LJMP    ??MT_UartProcessZToolData_2 & 0xFFFF
//  380         }
//  381         else
//  382         {
//  383           state = FCS_STATE;
//  384         }
//  385         break;
//  386 
//  387       case DATA_STATE:
//  388 
//  389         /* Fill in the buffer the first byte of the data */
//  390         pMsg->msg[MT_RPC_FRAME_HDR_SZ + tempDataLen++] = ch;
??MT_UartProcessZToolData_8:
        MOV     DPL,?XSP + 0
        MOV     DPH,?XSP + 1
        MOVX    A,@DPTR
        PUSH    A
          CFI CFA_SP SP+-1
        LCALL   ?Subroutine1 & 0xFFFF
??CrossCallReturnLabel_0:
        POP     A
          CFI CFA_SP SP+0
        MOVX    @DPTR,A
        MOV     DPTR,#tempDataLen
        MOVX    A,@DPTR
        INC     A
        MOVX    @DPTR,A
//  391 
//  392         /* Check number of bytes left in the Rx buffer */
//  393         bytesInRxBuffer = Hal_UART_RxBufLen(port);
        ; Setup parameters for call to function Hal_UART_RxBufLen
        MOV     A,R6
        MOV     R1,A
        LCALL   `??Hal_UART_RxBufLen::?relay`; Banked call to: Hal_UART_RxBufLen
        MOV     A,R2
        MOV     R7,A
//  394 
//  395         /* If the remain of the data is there, read them all, otherwise, just read enough */
//  396         if (bytesInRxBuffer <= LEN_Token - tempDataLen)
        LCALL   ?Subroutine1 & 0xFFFF
??CrossCallReturnLabel_1:
        MOV     R2,DPL
        MOV     R3,DPH
        MOV     DPTR,#LEN_Token
        MOVX    A,@DPTR
        CLR     C
        SUBB    A,R0
        MOV     R4,A
        SUBB    A,0xE0 /* A   */
        MOV     R5,A
        MOV     A,R7
        MOV     R0,A
        CLR     C
        MOV     A,R4
        SUBB    A,R0
        MOV     A,R5
        SUBB    A,#0x0
        MOV     C,0xD0 /* PSW */.2
        XRL     A,PSW
        RLC     A
        JC      ??MT_UartProcessZToolData_11
//  397         {
//  398           HalUARTRead (port, &pMsg->msg[MT_RPC_FRAME_HDR_SZ + tempDataLen], bytesInRxBuffer);
        ; Setup parameters for call to function HalUARTRead
        MOV     A,R7
        MOV     R4,A
        MOV     R5,#0x0
        MOV     A,R6
        MOV     R1,A
        LCALL   `??HalUARTRead::?relay`; Banked call to: HalUARTRead
//  399           tempDataLen += bytesInRxBuffer;
        MOV     DPTR,#tempDataLen
        MOVX    A,@DPTR
        ADD     A,R7
        SJMP    ??MT_UartProcessZToolData_12
//  400         }
//  401         else
//  402         {
//  403           HalUARTRead (port, &pMsg->msg[MT_RPC_FRAME_HDR_SZ + tempDataLen], LEN_Token - tempDataLen);
??MT_UartProcessZToolData_11:
        ; Setup parameters for call to function HalUARTRead
        MOV     A,R6
        MOV     R1,A
        LCALL   `??HalUARTRead::?relay`; Banked call to: HalUARTRead
//  404           tempDataLen += (LEN_Token - tempDataLen);
        MOV     DPTR,#LEN_Token
        MOVX    A,@DPTR
        MOV     DPTR,#tempDataLen
??MT_UartProcessZToolData_12:
        MOVX    @DPTR,A
//  405         }
//  406 
//  407         /* If number of bytes read is equal to data length, time to move on to FCS */
//  408         if ( tempDataLen == LEN_Token )
        MOVX    A,@DPTR
        MOV     R0,A
        MOV     DPTR,#LEN_Token
        MOVX    A,@DPTR
        XRL     A,R0
        JZ      $+5
        LJMP    ??MT_UartProcessZToolData_0 & 0xFFFF
//  409             state = FCS_STATE;
??MT_UartProcessZToolData_10:
        MOV     DPTR,#state
        MOV     A,#0x5
        LJMP    ??MT_UartProcessZToolData_2 & 0xFFFF
//  410 
//  411         break;
//  412 
//  413       case FCS_STATE:
//  414 
//  415         FSC_Token = ch;
??MT_UartProcessZToolData_9:
        MOV     DPL,?XSP + 0
        MOV     DPH,?XSP + 1
        MOVX    A,@DPTR
        MOV     DPTR,#FSC_Token
        LCALL   ?Subroutine2 & 0xFFFF
//  416 
//  417         /* Make sure it's correct */
//  418         if ((MT_UartCalcFCS ((uint8*)&pMsg->msg[0], MT_RPC_FRAME_HDR_SZ + LEN_Token) == FSC_Token))
??CrossCallReturnLabel_5:
        ADD     A,#0x3
        MOV     R1,A
        LCALL   ?Subroutine8 & 0xFFFF
??CrossCallReturnLabel_14:
        LCALL   ??Subroutine10_0 & 0xFFFF
??CrossCallReturnLabel_21:
        LCALL   `??MT_UartCalcFCS::?relay`; Banked call to: MT_UartCalcFCS
        MOV     A,R1
        MOV     R0,A
        MOV     DPTR,#FSC_Token
        MOVX    A,@DPTR
        XRL     A,R0
        MOV     DPTR,#pMsg
        JNZ     ??MT_UartProcessZToolData_13
//  419         {
//  420           osal_msg_send( App_TaskID, (byte *)pMsg );
        ; Setup parameters for call to function osal_msg_send
        LCALL   ??Subroutine10_0 & 0xFFFF
//  421         }
??CrossCallReturnLabel_22:
        MOV     DPTR,#App_TaskID
        MOVX    A,@DPTR
        MOV     R1,A
        LCALL   `??osal_msg_send::?relay`; Banked call to: osal_msg_send
        SJMP    ??MT_UartProcessZToolData_14
//  422         else
//  423         {
//  424           /* deallocate the msg */
//  425           osal_msg_deallocate ( (uint8 *)pMsg );
??MT_UartProcessZToolData_13:
        ; Setup parameters for call to function osal_msg_deallocate
        LCALL   ??Subroutine10_0 & 0xFFFF
//  426         }
??CrossCallReturnLabel_23:
        LCALL   `??osal_msg_deallocate::?relay`; Banked call to: osal_msg_deallocate
//  427 
//  428         /* Reset the state, send or discard the buffers at this point */
//  429         state = SOP_STATE;
??MT_UartProcessZToolData_14:
        MOV     DPTR,#state
        CLR     A
        LJMP    ??MT_UartProcessZToolData_2 & 0xFFFF
//  430 
//  431         break;
//  432 
//  433       default:
//  434        break;
//  435     }
//  436   }
//  437 }
??MT_UartProcessZToolData_3:
        MOV     A,#0x1
        LCALL   ?DEALLOC_XSTACK8
          CFI CFA_XSP16 add(XSP16, 10)
        MOV     R7,#0x2
        LJMP    ?BANKED_LEAVE_XDATA
          CFI EndBlock cfiBlock11

        RSEG BANKED_CODE:CODE:NOROOT(0)
?Subroutine5:
          CFI Block cfiCond12 Using cfiCommon0
          CFI Function uartHandleCommand
          CFI Conditional ??CrossCallReturnLabel_24
          CFI R6 load(1, XDATA, add(CFA_XSP16, literal(-20)))
          CFI VB load(1, XDATA, add(CFA_XSP16, literal(-19)))
          CFI V0 load(1, XDATA, add(CFA_XSP16, literal(-18)))
          CFI V1 load(1, XDATA, add(CFA_XSP16, literal(-17)))
          CFI V2 load(1, XDATA, add(CFA_XSP16, literal(-16)))
          CFI V3 load(1, XDATA, add(CFA_XSP16, literal(-15)))
          CFI V4 load(1, XDATA, add(CFA_XSP16, literal(-14)))
          CFI V5 load(1, XDATA, add(CFA_XSP16, literal(-13)))
          CFI V6 load(1, XDATA, add(CFA_XSP16, literal(-12)))
          CFI V7 load(1, XDATA, add(CFA_XSP16, literal(-11)))
          CFI V8 load(1, XDATA, add(CFA_XSP16, literal(-10)))
          CFI V9 load(1, XDATA, add(CFA_XSP16, literal(-9)))
          CFI V10 load(1, XDATA, add(CFA_XSP16, literal(-8)))
          CFI V11 load(1, XDATA, add(CFA_XSP16, literal(-7)))
          CFI R7 load(1, XDATA, add(CFA_XSP16, literal(-6)))
          CFI ?RET_LOW load(1, XDATA, add(CFA_XSP16, literal(-5)))
          CFI ?RET_HIGH load(1, XDATA, add(CFA_XSP16, literal(-4)))
          CFI ?BRET_EXT load(1, XDATA, add(CFA_XSP16, literal(-3)))
          CFI DPL0 load(1, XDATA, add(CFA_XSP16, literal(-2)))
          CFI DPH0 load(1, XDATA, add(CFA_XSP16, literal(-1)))
          CFI CFA_SP SP+-2
          CFI CFA_XSP16 add(XSP16, 40)
          CFI Block cfiCond13 Using cfiCommon0
          CFI (cfiCond13) Function uartHandleCommand
          CFI (cfiCond13) Conditional ??CrossCallReturnLabel_25
          CFI (cfiCond13) R6 load(1, XDATA, add(CFA_XSP16, literal(-20)))
          CFI (cfiCond13) VB load(1, XDATA, add(CFA_XSP16, literal(-19)))
          CFI (cfiCond13) V0 load(1, XDATA, add(CFA_XSP16, literal(-18)))
          CFI (cfiCond13) V1 load(1, XDATA, add(CFA_XSP16, literal(-17)))
          CFI (cfiCond13) V2 load(1, XDATA, add(CFA_XSP16, literal(-16)))
          CFI (cfiCond13) V3 load(1, XDATA, add(CFA_XSP16, literal(-15)))
          CFI (cfiCond13) V4 load(1, XDATA, add(CFA_XSP16, literal(-14)))
          CFI (cfiCond13) V5 load(1, XDATA, add(CFA_XSP16, literal(-13)))
          CFI (cfiCond13) V6 load(1, XDATA, add(CFA_XSP16, literal(-12)))
          CFI (cfiCond13) V7 load(1, XDATA, add(CFA_XSP16, literal(-11)))
          CFI (cfiCond13) V8 load(1, XDATA, add(CFA_XSP16, literal(-10)))
          CFI (cfiCond13) V9 load(1, XDATA, add(CFA_XSP16, literal(-9)))
          CFI (cfiCond13) V10 load(1, XDATA, add(CFA_XSP16, literal(-8)))
          CFI (cfiCond13) V11 load(1, XDATA, add(CFA_XSP16, literal(-7)))
          CFI (cfiCond13) R7 load(1, XDATA, add(CFA_XSP16, literal(-6)))
          CFI (cfiCond13) ?RET_LOW load(1, XDATA, add(CFA_XSP16, literal(-5)))
          CFI (cfiCond13) ?RET_HIGH load(1, XDATA, add(CFA_XSP16, literal(-4)))
          CFI (cfiCond13) ?BRET_EXT load(1, XDATA, add(CFA_XSP16, literal(-3)))
          CFI (cfiCond13) DPL0 load(1, XDATA, add(CFA_XSP16, literal(-2)))
          CFI (cfiCond13) DPH0 load(1, XDATA, add(CFA_XSP16, literal(-1)))
          CFI (cfiCond13) CFA_SP SP+-2
          CFI (cfiCond13) CFA_XSP16 add(XSP16, 40)
          CFI Block cfiPicker14 Using cfiCommon1
          CFI (cfiPicker14) NoFunction
          CFI (cfiPicker14) Picker
        MOV     DPTR,#args + 4
          CFI EndBlock cfiCond12
          CFI EndBlock cfiCond13
          CFI EndBlock cfiPicker14
        REQUIRE ??Subroutine10_0
        ; // Fall through to label ??Subroutine10_0

        RSEG BANKED_CODE:CODE:NOROOT(0)
??Subroutine10_0:
          CFI Block cfiCond15 Using cfiCommon0
          CFI Function uartHandleCommand
          CFI Conditional ??CrossCallReturnLabel_18
          CFI R6 load(1, XDATA, add(CFA_XSP16, literal(-20)))
          CFI VB load(1, XDATA, add(CFA_XSP16, literal(-19)))
          CFI V0 load(1, XDATA, add(CFA_XSP16, literal(-18)))
          CFI V1 load(1, XDATA, add(CFA_XSP16, literal(-17)))
          CFI V2 load(1, XDATA, add(CFA_XSP16, literal(-16)))
          CFI V3 load(1, XDATA, add(CFA_XSP16, literal(-15)))
          CFI V4 load(1, XDATA, add(CFA_XSP16, literal(-14)))
          CFI V5 load(1, XDATA, add(CFA_XSP16, literal(-13)))
          CFI V6 load(1, XDATA, add(CFA_XSP16, literal(-12)))
          CFI V7 load(1, XDATA, add(CFA_XSP16, literal(-11)))
          CFI V8 load(1, XDATA, add(CFA_XSP16, literal(-10)))
          CFI V9 load(1, XDATA, add(CFA_XSP16, literal(-9)))
          CFI V10 load(1, XDATA, add(CFA_XSP16, literal(-8)))
          CFI V11 load(1, XDATA, add(CFA_XSP16, literal(-7)))
          CFI R7 load(1, XDATA, add(CFA_XSP16, literal(-6)))
          CFI ?RET_LOW load(1, XDATA, add(CFA_XSP16, literal(-5)))
          CFI ?RET_HIGH load(1, XDATA, add(CFA_XSP16, literal(-4)))
          CFI ?BRET_EXT load(1, XDATA, add(CFA_XSP16, literal(-3)))
          CFI DPL0 load(1, XDATA, add(CFA_XSP16, literal(-2)))
          CFI DPH0 load(1, XDATA, add(CFA_XSP16, literal(-1)))
          CFI CFA_SP SP+-2
          CFI CFA_XSP16 add(XSP16, 40)
          CFI Block cfiCond16 Using cfiCommon0
          CFI (cfiCond16) Function uartHandleCommand
          CFI (cfiCond16) Conditional ??CrossCallReturnLabel_19
          CFI (cfiCond16) R6 load(1, XDATA, add(CFA_XSP16, literal(-20)))
          CFI (cfiCond16) VB load(1, XDATA, add(CFA_XSP16, literal(-19)))
          CFI (cfiCond16) V0 load(1, XDATA, add(CFA_XSP16, literal(-18)))
          CFI (cfiCond16) V1 load(1, XDATA, add(CFA_XSP16, literal(-17)))
          CFI (cfiCond16) V2 load(1, XDATA, add(CFA_XSP16, literal(-16)))
          CFI (cfiCond16) V3 load(1, XDATA, add(CFA_XSP16, literal(-15)))
          CFI (cfiCond16) V4 load(1, XDATA, add(CFA_XSP16, literal(-14)))
          CFI (cfiCond16) V5 load(1, XDATA, add(CFA_XSP16, literal(-13)))
          CFI (cfiCond16) V6 load(1, XDATA, add(CFA_XSP16, literal(-12)))
          CFI (cfiCond16) V7 load(1, XDATA, add(CFA_XSP16, literal(-11)))
          CFI (cfiCond16) V8 load(1, XDATA, add(CFA_XSP16, literal(-10)))
          CFI (cfiCond16) V9 load(1, XDATA, add(CFA_XSP16, literal(-9)))
          CFI (cfiCond16) V10 load(1, XDATA, add(CFA_XSP16, literal(-8)))
          CFI (cfiCond16) V11 load(1, XDATA, add(CFA_XSP16, literal(-7)))
          CFI (cfiCond16) R7 load(1, XDATA, add(CFA_XSP16, literal(-6)))
          CFI (cfiCond16) ?RET_LOW load(1, XDATA, add(CFA_XSP16, literal(-5)))
          CFI (cfiCond16) ?RET_HIGH load(1, XDATA, add(CFA_XSP16, literal(-4)))
          CFI (cfiCond16) ?BRET_EXT load(1, XDATA, add(CFA_XSP16, literal(-3)))
          CFI (cfiCond16) DPL0 load(1, XDATA, add(CFA_XSP16, literal(-2)))
          CFI (cfiCond16) DPH0 load(1, XDATA, add(CFA_XSP16, literal(-1)))
          CFI (cfiCond16) CFA_SP SP+-2
          CFI (cfiCond16) CFA_XSP16 add(XSP16, 40)
          CFI Block cfiCond17 Using cfiCommon0
          CFI (cfiCond17) Function uartHandleCommand
          CFI (cfiCond17) Conditional ??CrossCallReturnLabel_20
          CFI (cfiCond17) R6 load(1, XDATA, add(CFA_XSP16, literal(-20)))
          CFI (cfiCond17) VB load(1, XDATA, add(CFA_XSP16, literal(-19)))
          CFI (cfiCond17) V0 load(1, XDATA, add(CFA_XSP16, literal(-18)))
          CFI (cfiCond17) V1 load(1, XDATA, add(CFA_XSP16, literal(-17)))
          CFI (cfiCond17) V2 load(1, XDATA, add(CFA_XSP16, literal(-16)))
          CFI (cfiCond17) V3 load(1, XDATA, add(CFA_XSP16, literal(-15)))
          CFI (cfiCond17) V4 load(1, XDATA, add(CFA_XSP16, literal(-14)))
          CFI (cfiCond17) V5 load(1, XDATA, add(CFA_XSP16, literal(-13)))
          CFI (cfiCond17) V6 load(1, XDATA, add(CFA_XSP16, literal(-12)))
          CFI (cfiCond17) V7 load(1, XDATA, add(CFA_XSP16, literal(-11)))
          CFI (cfiCond17) V8 load(1, XDATA, add(CFA_XSP16, literal(-10)))
          CFI (cfiCond17) V9 load(1, XDATA, add(CFA_XSP16, literal(-9)))
          CFI (cfiCond17) V10 load(1, XDATA, add(CFA_XSP16, literal(-8)))
          CFI (cfiCond17) V11 load(1, XDATA, add(CFA_XSP16, literal(-7)))
          CFI (cfiCond17) R7 load(1, XDATA, add(CFA_XSP16, literal(-6)))
          CFI (cfiCond17) ?RET_LOW load(1, XDATA, add(CFA_XSP16, literal(-5)))
          CFI (cfiCond17) ?RET_HIGH load(1, XDATA, add(CFA_XSP16, literal(-4)))
          CFI (cfiCond17) ?BRET_EXT load(1, XDATA, add(CFA_XSP16, literal(-3)))
          CFI (cfiCond17) DPL0 load(1, XDATA, add(CFA_XSP16, literal(-2)))
          CFI (cfiCond17) DPH0 load(1, XDATA, add(CFA_XSP16, literal(-1)))
          CFI (cfiCond17) CFA_SP SP+-2
          CFI (cfiCond17) CFA_XSP16 add(XSP16, 40)
          CFI Block cfiCond18 Using cfiCommon0
          CFI (cfiCond18) Function MT_UartProcessZToolData
          CFI (cfiCond18) Conditional ??CrossCallReturnLabel_21
          CFI (cfiCond18) R6 load(1, XDATA, add(CFA_XSP16, literal(-10)))
          CFI (cfiCond18) VB load(1, XDATA, add(CFA_XSP16, literal(-9)))
          CFI (cfiCond18) V0 load(1, XDATA, add(CFA_XSP16, literal(-8)))
          CFI (cfiCond18) V1 load(1, XDATA, add(CFA_XSP16, literal(-7)))
          CFI (cfiCond18) R7 load(1, XDATA, add(CFA_XSP16, literal(-6)))
          CFI (cfiCond18) ?RET_LOW load(1, XDATA, add(CFA_XSP16, literal(-5)))
          CFI (cfiCond18) ?RET_HIGH load(1, XDATA, add(CFA_XSP16, literal(-4)))
          CFI (cfiCond18) ?BRET_EXT load(1, XDATA, add(CFA_XSP16, literal(-3)))
          CFI (cfiCond18) DPL0 load(1, XDATA, add(CFA_XSP16, literal(-2)))
          CFI (cfiCond18) DPH0 load(1, XDATA, add(CFA_XSP16, literal(-1)))
          CFI (cfiCond18) CFA_SP SP+-2
          CFI (cfiCond18) CFA_XSP16 add(XSP16, 11)
          CFI Block cfiCond19 Using cfiCommon0
          CFI (cfiCond19) Function MT_UartProcessZToolData
          CFI (cfiCond19) Conditional ??CrossCallReturnLabel_22
          CFI (cfiCond19) R6 load(1, XDATA, add(CFA_XSP16, literal(-10)))
          CFI (cfiCond19) VB load(1, XDATA, add(CFA_XSP16, literal(-9)))
          CFI (cfiCond19) V0 load(1, XDATA, add(CFA_XSP16, literal(-8)))
          CFI (cfiCond19) V1 load(1, XDATA, add(CFA_XSP16, literal(-7)))
          CFI (cfiCond19) R7 load(1, XDATA, add(CFA_XSP16, literal(-6)))
          CFI (cfiCond19) ?RET_LOW load(1, XDATA, add(CFA_XSP16, literal(-5)))
          CFI (cfiCond19) ?RET_HIGH load(1, XDATA, add(CFA_XSP16, literal(-4)))
          CFI (cfiCond19) ?BRET_EXT load(1, XDATA, add(CFA_XSP16, literal(-3)))
          CFI (cfiCond19) DPL0 load(1, XDATA, add(CFA_XSP16, literal(-2)))
          CFI (cfiCond19) DPH0 load(1, XDATA, add(CFA_XSP16, literal(-1)))
          CFI (cfiCond19) CFA_SP SP+-2
          CFI (cfiCond19) CFA_XSP16 add(XSP16, 11)
          CFI Block cfiCond20 Using cfiCommon0
          CFI (cfiCond20) Function MT_UartProcessZToolData
          CFI (cfiCond20) Conditional ??CrossCallReturnLabel_23
          CFI (cfiCond20) R6 load(1, XDATA, add(CFA_XSP16, literal(-10)))
          CFI (cfiCond20) VB load(1, XDATA, add(CFA_XSP16, literal(-9)))
          CFI (cfiCond20) V0 load(1, XDATA, add(CFA_XSP16, literal(-8)))
          CFI (cfiCond20) V1 load(1, XDATA, add(CFA_XSP16, literal(-7)))
          CFI (cfiCond20) R7 load(1, XDATA, add(CFA_XSP16, literal(-6)))
          CFI (cfiCond20) ?RET_LOW load(1, XDATA, add(CFA_XSP16, literal(-5)))
          CFI (cfiCond20) ?RET_HIGH load(1, XDATA, add(CFA_XSP16, literal(-4)))
          CFI (cfiCond20) ?BRET_EXT load(1, XDATA, add(CFA_XSP16, literal(-3)))
          CFI (cfiCond20) DPL0 load(1, XDATA, add(CFA_XSP16, literal(-2)))
          CFI (cfiCond20) DPH0 load(1, XDATA, add(CFA_XSP16, literal(-1)))
          CFI (cfiCond20) CFA_SP SP+-2
          CFI (cfiCond20) CFA_XSP16 add(XSP16, 11)
          CFI Block cfiCond21 Using cfiCommon0
          CFI (cfiCond21) Function uartHandleCommand
          CFI (cfiCond21) Conditional ??CrossCallReturnLabel_24
          CFI (cfiCond21) R6 load(1, XDATA, add(CFA_XSP16, literal(-20)))
          CFI (cfiCond21) VB load(1, XDATA, add(CFA_XSP16, literal(-19)))
          CFI (cfiCond21) V0 load(1, XDATA, add(CFA_XSP16, literal(-18)))
          CFI (cfiCond21) V1 load(1, XDATA, add(CFA_XSP16, literal(-17)))
          CFI (cfiCond21) V2 load(1, XDATA, add(CFA_XSP16, literal(-16)))
          CFI (cfiCond21) V3 load(1, XDATA, add(CFA_XSP16, literal(-15)))
          CFI (cfiCond21) V4 load(1, XDATA, add(CFA_XSP16, literal(-14)))
          CFI (cfiCond21) V5 load(1, XDATA, add(CFA_XSP16, literal(-13)))
          CFI (cfiCond21) V6 load(1, XDATA, add(CFA_XSP16, literal(-12)))
          CFI (cfiCond21) V7 load(1, XDATA, add(CFA_XSP16, literal(-11)))
          CFI (cfiCond21) V8 load(1, XDATA, add(CFA_XSP16, literal(-10)))
          CFI (cfiCond21) V9 load(1, XDATA, add(CFA_XSP16, literal(-9)))
          CFI (cfiCond21) V10 load(1, XDATA, add(CFA_XSP16, literal(-8)))
          CFI (cfiCond21) V11 load(1, XDATA, add(CFA_XSP16, literal(-7)))
          CFI (cfiCond21) R7 load(1, XDATA, add(CFA_XSP16, literal(-6)))
          CFI (cfiCond21) ?RET_LOW load(1, XDATA, add(CFA_XSP16, literal(-5)))
          CFI (cfiCond21) ?RET_HIGH load(1, XDATA, add(CFA_XSP16, literal(-4)))
          CFI (cfiCond21) ?BRET_EXT load(1, XDATA, add(CFA_XSP16, literal(-3)))
          CFI (cfiCond21) DPL0 load(1, XDATA, add(CFA_XSP16, literal(-2)))
          CFI (cfiCond21) DPH0 load(1, XDATA, add(CFA_XSP16, literal(-1)))
          CFI (cfiCond21) CFA_SP SP+-2
          CFI (cfiCond21) CFA_XSP16 add(XSP16, 40)
          CFI Block cfiCond22 Using cfiCommon0
          CFI (cfiCond22) Function uartHandleCommand
          CFI (cfiCond22) Conditional ??CrossCallReturnLabel_25
          CFI (cfiCond22) R6 load(1, XDATA, add(CFA_XSP16, literal(-20)))
          CFI (cfiCond22) VB load(1, XDATA, add(CFA_XSP16, literal(-19)))
          CFI (cfiCond22) V0 load(1, XDATA, add(CFA_XSP16, literal(-18)))
          CFI (cfiCond22) V1 load(1, XDATA, add(CFA_XSP16, literal(-17)))
          CFI (cfiCond22) V2 load(1, XDATA, add(CFA_XSP16, literal(-16)))
          CFI (cfiCond22) V3 load(1, XDATA, add(CFA_XSP16, literal(-15)))
          CFI (cfiCond22) V4 load(1, XDATA, add(CFA_XSP16, literal(-14)))
          CFI (cfiCond22) V5 load(1, XDATA, add(CFA_XSP16, literal(-13)))
          CFI (cfiCond22) V6 load(1, XDATA, add(CFA_XSP16, literal(-12)))
          CFI (cfiCond22) V7 load(1, XDATA, add(CFA_XSP16, literal(-11)))
          CFI (cfiCond22) V8 load(1, XDATA, add(CFA_XSP16, literal(-10)))
          CFI (cfiCond22) V9 load(1, XDATA, add(CFA_XSP16, literal(-9)))
          CFI (cfiCond22) V10 load(1, XDATA, add(CFA_XSP16, literal(-8)))
          CFI (cfiCond22) V11 load(1, XDATA, add(CFA_XSP16, literal(-7)))
          CFI (cfiCond22) R7 load(1, XDATA, add(CFA_XSP16, literal(-6)))
          CFI (cfiCond22) ?RET_LOW load(1, XDATA, add(CFA_XSP16, literal(-5)))
          CFI (cfiCond22) ?RET_HIGH load(1, XDATA, add(CFA_XSP16, literal(-4)))
          CFI (cfiCond22) ?BRET_EXT load(1, XDATA, add(CFA_XSP16, literal(-3)))
          CFI (cfiCond22) DPL0 load(1, XDATA, add(CFA_XSP16, literal(-2)))
          CFI (cfiCond22) DPH0 load(1, XDATA, add(CFA_XSP16, literal(-1)))
          CFI (cfiCond22) CFA_SP SP+-2
          CFI (cfiCond22) CFA_XSP16 add(XSP16, 40)
          CFI Block cfiPicker23 Using cfiCommon1
          CFI (cfiPicker23) NoFunction
          CFI (cfiPicker23) Picker
        MOVX    A,@DPTR
        MOV     R2,A
        INC     DPTR
        MOVX    A,@DPTR
        MOV     R3,A
        RET
          CFI EndBlock cfiCond15
          CFI EndBlock cfiCond16
          CFI EndBlock cfiCond17
          CFI EndBlock cfiCond18
          CFI EndBlock cfiCond19
          CFI EndBlock cfiCond20
          CFI EndBlock cfiCond21
          CFI EndBlock cfiCond22
          CFI EndBlock cfiPicker23

        RSEG BANKED_CODE:CODE:NOROOT(0)
?Subroutine4:
          CFI Block cfiCond24 Using cfiCommon0
          CFI Function MT_UartProcessZToolData
          CFI Conditional ??CrossCallReturnLabel_8
          CFI R6 load(1, XDATA, add(CFA_XSP16, literal(-10)))
          CFI VB load(1, XDATA, add(CFA_XSP16, literal(-9)))
          CFI V0 load(1, XDATA, add(CFA_XSP16, literal(-8)))
          CFI V1 load(1, XDATA, add(CFA_XSP16, literal(-7)))
          CFI R7 load(1, XDATA, add(CFA_XSP16, literal(-6)))
          CFI ?RET_LOW load(1, XDATA, add(CFA_XSP16, literal(-5)))
          CFI ?RET_HIGH load(1, XDATA, add(CFA_XSP16, literal(-4)))
          CFI ?BRET_EXT load(1, XDATA, add(CFA_XSP16, literal(-3)))
          CFI DPL0 load(1, XDATA, add(CFA_XSP16, literal(-2)))
          CFI DPH0 load(1, XDATA, add(CFA_XSP16, literal(-1)))
          CFI CFA_XSP16 add(XSP16, 11)
          CFI Block cfiCond25 Using cfiCommon0
          CFI (cfiCond25) Function MT_UartProcessZToolData
          CFI (cfiCond25) Conditional ??CrossCallReturnLabel_9
          CFI (cfiCond25) R6 load(1, XDATA, add(CFA_XSP16, literal(-10)))
          CFI (cfiCond25) VB load(1, XDATA, add(CFA_XSP16, literal(-9)))
          CFI (cfiCond25) V0 load(1, XDATA, add(CFA_XSP16, literal(-8)))
          CFI (cfiCond25) V1 load(1, XDATA, add(CFA_XSP16, literal(-7)))
          CFI (cfiCond25) R7 load(1, XDATA, add(CFA_XSP16, literal(-6)))
          CFI (cfiCond25) ?RET_LOW load(1, XDATA, add(CFA_XSP16, literal(-5)))
          CFI (cfiCond25) ?RET_HIGH load(1, XDATA, add(CFA_XSP16, literal(-4)))
          CFI (cfiCond25) ?BRET_EXT load(1, XDATA, add(CFA_XSP16, literal(-3)))
          CFI (cfiCond25) DPL0 load(1, XDATA, add(CFA_XSP16, literal(-2)))
          CFI (cfiCond25) DPH0 load(1, XDATA, add(CFA_XSP16, literal(-1)))
          CFI (cfiCond25) CFA_XSP16 add(XSP16, 11)
          CFI Block cfiPicker26 Using cfiCommon1
          CFI (cfiPicker26) NoFunction
          CFI (cfiPicker26) Picker
        LCALL   ?Subroutine8 & 0xFFFF
??CrossCallReturnLabel_15:
        LCALL   ?Subroutine9 & 0xFFFF
??CrossCallReturnLabel_16:
        RET
          CFI EndBlock cfiCond24
          CFI EndBlock cfiCond25
          CFI EndBlock cfiPicker26

        RSEG BANKED_CODE:CODE:NOROOT(0)
?Subroutine9:
          CFI Block cfiCond27 Using cfiCommon0
          CFI Function MT_UartProcessZToolData
          CFI Conditional ??CrossCallReturnLabel_16, ??CrossCallReturnLabel_8
          CFI R6 load(1, XDATA, add(CFA_XSP16, literal(-10)))
          CFI VB load(1, XDATA, add(CFA_XSP16, literal(-9)))
          CFI V0 load(1, XDATA, add(CFA_XSP16, literal(-8)))
          CFI V1 load(1, XDATA, add(CFA_XSP16, literal(-7)))
          CFI R7 load(1, XDATA, add(CFA_XSP16, literal(-6)))
          CFI ?RET_LOW load(1, XDATA, add(CFA_XSP16, literal(-5)))
          CFI ?RET_HIGH load(1, XDATA, add(CFA_XSP16, literal(-4)))
          CFI ?BRET_EXT load(1, XDATA, add(CFA_XSP16, literal(-3)))
          CFI DPL0 load(1, XDATA, add(CFA_XSP16, literal(-2)))
          CFI DPH0 load(1, XDATA, add(CFA_XSP16, literal(-1)))
          CFI CFA_SP SP+-5
          CFI CFA_XSP16 add(XSP16, 11)
          CFI Block cfiCond28 Using cfiCommon0
          CFI (cfiCond28) Function MT_UartProcessZToolData
          CFI (cfiCond28) Conditional ??CrossCallReturnLabel_16, ??CrossCallReturnLabel_9
          CFI (cfiCond28) R6 load(1, XDATA, add(CFA_XSP16, literal(-10)))
          CFI (cfiCond28) VB load(1, XDATA, add(CFA_XSP16, literal(-9)))
          CFI (cfiCond28) V0 load(1, XDATA, add(CFA_XSP16, literal(-8)))
          CFI (cfiCond28) V1 load(1, XDATA, add(CFA_XSP16, literal(-7)))
          CFI (cfiCond28) R7 load(1, XDATA, add(CFA_XSP16, literal(-6)))
          CFI (cfiCond28) ?RET_LOW load(1, XDATA, add(CFA_XSP16, literal(-5)))
          CFI (cfiCond28) ?RET_HIGH load(1, XDATA, add(CFA_XSP16, literal(-4)))
          CFI (cfiCond28) ?BRET_EXT load(1, XDATA, add(CFA_XSP16, literal(-3)))
          CFI (cfiCond28) DPL0 load(1, XDATA, add(CFA_XSP16, literal(-2)))
          CFI (cfiCond28) DPH0 load(1, XDATA, add(CFA_XSP16, literal(-1)))
          CFI (cfiCond28) CFA_SP SP+-5
          CFI (cfiCond28) CFA_XSP16 add(XSP16, 11)
          CFI Block cfiCond29 Using cfiCommon0
          CFI (cfiCond29) Function MT_UartProcessZToolData
          CFI (cfiCond29) Conditional ??CrossCallReturnLabel_17, ??CrossCallReturnLabel_14
          CFI (cfiCond29) R6 load(1, XDATA, add(CFA_XSP16, literal(-10)))
          CFI (cfiCond29) VB load(1, XDATA, add(CFA_XSP16, literal(-9)))
          CFI (cfiCond29) V0 load(1, XDATA, add(CFA_XSP16, literal(-8)))
          CFI (cfiCond29) V1 load(1, XDATA, add(CFA_XSP16, literal(-7)))
          CFI (cfiCond29) R7 load(1, XDATA, add(CFA_XSP16, literal(-6)))
          CFI (cfiCond29) ?RET_LOW load(1, XDATA, add(CFA_XSP16, literal(-5)))
          CFI (cfiCond29) ?RET_HIGH load(1, XDATA, add(CFA_XSP16, literal(-4)))
          CFI (cfiCond29) ?BRET_EXT load(1, XDATA, add(CFA_XSP16, literal(-3)))
          CFI (cfiCond29) DPL0 load(1, XDATA, add(CFA_XSP16, literal(-2)))
          CFI (cfiCond29) DPH0 load(1, XDATA, add(CFA_XSP16, literal(-1)))
          CFI (cfiCond29) CFA_SP SP+-4
          CFI (cfiCond29) CFA_XSP16 add(XSP16, 11)
          CFI Block cfiCond30 Using cfiCommon0
          CFI (cfiCond30) Function MT_UartProcessZToolData
          CFI (cfiCond30) Conditional ??CrossCallReturnLabel_17, ??CrossCallReturnLabel_15, ??CrossCallReturnLabel_8
          CFI (cfiCond30) R6 load(1, XDATA, add(CFA_XSP16, literal(-10)))
          CFI (cfiCond30) VB load(1, XDATA, add(CFA_XSP16, literal(-9)))
          CFI (cfiCond30) V0 load(1, XDATA, add(CFA_XSP16, literal(-8)))
          CFI (cfiCond30) V1 load(1, XDATA, add(CFA_XSP16, literal(-7)))
          CFI (cfiCond30) R7 load(1, XDATA, add(CFA_XSP16, literal(-6)))
          CFI (cfiCond30) ?RET_LOW load(1, XDATA, add(CFA_XSP16, literal(-5)))
          CFI (cfiCond30) ?RET_HIGH load(1, XDATA, add(CFA_XSP16, literal(-4)))
          CFI (cfiCond30) ?BRET_EXT load(1, XDATA, add(CFA_XSP16, literal(-3)))
          CFI (cfiCond30) DPL0 load(1, XDATA, add(CFA_XSP16, literal(-2)))
          CFI (cfiCond30) DPH0 load(1, XDATA, add(CFA_XSP16, literal(-1)))
          CFI (cfiCond30) CFA_SP SP+-7
          CFI (cfiCond30) CFA_XSP16 add(XSP16, 11)
          CFI Block cfiCond31 Using cfiCommon0
          CFI (cfiCond31) Function MT_UartProcessZToolData
          CFI (cfiCond31) Conditional ??CrossCallReturnLabel_17, ??CrossCallReturnLabel_15, ??CrossCallReturnLabel_9
          CFI (cfiCond31) R6 load(1, XDATA, add(CFA_XSP16, literal(-10)))
          CFI (cfiCond31) VB load(1, XDATA, add(CFA_XSP16, literal(-9)))
          CFI (cfiCond31) V0 load(1, XDATA, add(CFA_XSP16, literal(-8)))
          CFI (cfiCond31) V1 load(1, XDATA, add(CFA_XSP16, literal(-7)))
          CFI (cfiCond31) R7 load(1, XDATA, add(CFA_XSP16, literal(-6)))
          CFI (cfiCond31) ?RET_LOW load(1, XDATA, add(CFA_XSP16, literal(-5)))
          CFI (cfiCond31) ?RET_HIGH load(1, XDATA, add(CFA_XSP16, literal(-4)))
          CFI (cfiCond31) ?BRET_EXT load(1, XDATA, add(CFA_XSP16, literal(-3)))
          CFI (cfiCond31) DPL0 load(1, XDATA, add(CFA_XSP16, literal(-2)))
          CFI (cfiCond31) DPH0 load(1, XDATA, add(CFA_XSP16, literal(-1)))
          CFI (cfiCond31) CFA_SP SP+-7
          CFI (cfiCond31) CFA_XSP16 add(XSP16, 11)
          CFI Block cfiPicker32 Using cfiCommon1
          CFI (cfiPicker32) NoFunction
          CFI (cfiPicker32) Picker
        MOVX    A,@DPTR
        MOV     R0,A
        INC     DPTR
        MOVX    A,@DPTR
        MOV     DPH,A
        MOV     DPL,R0
        INC     DPTR
        RET
          CFI EndBlock cfiCond27
          CFI EndBlock cfiCond28
          CFI EndBlock cfiCond29
          CFI EndBlock cfiCond30
          CFI EndBlock cfiCond31
          CFI EndBlock cfiPicker32

        RSEG BANKED_CODE:CODE:NOROOT(0)
?Subroutine8:
          CFI Block cfiCond33 Using cfiCommon0
          CFI Function MT_UartProcessZToolData
          CFI Conditional ??CrossCallReturnLabel_14
          CFI R6 load(1, XDATA, add(CFA_XSP16, literal(-10)))
          CFI VB load(1, XDATA, add(CFA_XSP16, literal(-9)))
          CFI V0 load(1, XDATA, add(CFA_XSP16, literal(-8)))
          CFI V1 load(1, XDATA, add(CFA_XSP16, literal(-7)))
          CFI R7 load(1, XDATA, add(CFA_XSP16, literal(-6)))
          CFI ?RET_LOW load(1, XDATA, add(CFA_XSP16, literal(-5)))
          CFI ?RET_HIGH load(1, XDATA, add(CFA_XSP16, literal(-4)))
          CFI ?BRET_EXT load(1, XDATA, add(CFA_XSP16, literal(-3)))
          CFI DPL0 load(1, XDATA, add(CFA_XSP16, literal(-2)))
          CFI DPH0 load(1, XDATA, add(CFA_XSP16, literal(-1)))
          CFI CFA_SP SP+-2
          CFI CFA_XSP16 add(XSP16, 11)
          CFI Block cfiCond34 Using cfiCommon0
          CFI (cfiCond34) Function MT_UartProcessZToolData
          CFI (cfiCond34) Conditional ??CrossCallReturnLabel_15, ??CrossCallReturnLabel_8
          CFI (cfiCond34) R6 load(1, XDATA, add(CFA_XSP16, literal(-10)))
          CFI (cfiCond34) VB load(1, XDATA, add(CFA_XSP16, literal(-9)))
          CFI (cfiCond34) V0 load(1, XDATA, add(CFA_XSP16, literal(-8)))
          CFI (cfiCond34) V1 load(1, XDATA, add(CFA_XSP16, literal(-7)))
          CFI (cfiCond34) R7 load(1, XDATA, add(CFA_XSP16, literal(-6)))
          CFI (cfiCond34) ?RET_LOW load(1, XDATA, add(CFA_XSP16, literal(-5)))
          CFI (cfiCond34) ?RET_HIGH load(1, XDATA, add(CFA_XSP16, literal(-4)))
          CFI (cfiCond34) ?BRET_EXT load(1, XDATA, add(CFA_XSP16, literal(-3)))
          CFI (cfiCond34) DPL0 load(1, XDATA, add(CFA_XSP16, literal(-2)))
          CFI (cfiCond34) DPH0 load(1, XDATA, add(CFA_XSP16, literal(-1)))
          CFI (cfiCond34) CFA_SP SP+-5
          CFI (cfiCond34) CFA_XSP16 add(XSP16, 11)
          CFI Block cfiCond35 Using cfiCommon0
          CFI (cfiCond35) Function MT_UartProcessZToolData
          CFI (cfiCond35) Conditional ??CrossCallReturnLabel_15, ??CrossCallReturnLabel_9
          CFI (cfiCond35) R6 load(1, XDATA, add(CFA_XSP16, literal(-10)))
          CFI (cfiCond35) VB load(1, XDATA, add(CFA_XSP16, literal(-9)))
          CFI (cfiCond35) V0 load(1, XDATA, add(CFA_XSP16, literal(-8)))
          CFI (cfiCond35) V1 load(1, XDATA, add(CFA_XSP16, literal(-7)))
          CFI (cfiCond35) R7 load(1, XDATA, add(CFA_XSP16, literal(-6)))
          CFI (cfiCond35) ?RET_LOW load(1, XDATA, add(CFA_XSP16, literal(-5)))
          CFI (cfiCond35) ?RET_HIGH load(1, XDATA, add(CFA_XSP16, literal(-4)))
          CFI (cfiCond35) ?BRET_EXT load(1, XDATA, add(CFA_XSP16, literal(-3)))
          CFI (cfiCond35) DPL0 load(1, XDATA, add(CFA_XSP16, literal(-2)))
          CFI (cfiCond35) DPH0 load(1, XDATA, add(CFA_XSP16, literal(-1)))
          CFI (cfiCond35) CFA_SP SP+-5
          CFI (cfiCond35) CFA_XSP16 add(XSP16, 11)
          CFI Block cfiPicker36 Using cfiCommon1
          CFI (cfiPicker36) NoFunction
          CFI (cfiPicker36) Picker
        MOV     DPTR,#pMsg
        LCALL   ?Subroutine9 & 0xFFFF
??CrossCallReturnLabel_17:
        INC     DPTR
        RET
          CFI EndBlock cfiCond33
          CFI EndBlock cfiCond34
          CFI EndBlock cfiCond35
          CFI EndBlock cfiPicker36

        RSEG BANKED_CODE:CODE:NOROOT(0)
?Subroutine2:
          CFI Block cfiCond37 Using cfiCommon0
          CFI Function MT_UartProcessZToolData
          CFI Conditional ??CrossCallReturnLabel_2
          CFI R6 load(1, XDATA, add(CFA_XSP16, literal(-10)))
          CFI VB load(1, XDATA, add(CFA_XSP16, literal(-9)))
          CFI V0 load(1, XDATA, add(CFA_XSP16, literal(-8)))
          CFI V1 load(1, XDATA, add(CFA_XSP16, literal(-7)))
          CFI R7 load(1, XDATA, add(CFA_XSP16, literal(-6)))
          CFI ?RET_LOW load(1, XDATA, add(CFA_XSP16, literal(-5)))
          CFI ?RET_HIGH load(1, XDATA, add(CFA_XSP16, literal(-4)))
          CFI ?BRET_EXT load(1, XDATA, add(CFA_XSP16, literal(-3)))
          CFI DPL0 load(1, XDATA, add(CFA_XSP16, literal(-2)))
          CFI DPH0 load(1, XDATA, add(CFA_XSP16, literal(-1)))
          CFI CFA_SP SP+-2
          CFI CFA_XSP16 add(XSP16, 11)
          CFI Block cfiCond38 Using cfiCommon0
          CFI (cfiCond38) Function MT_UartProcessZToolData
          CFI (cfiCond38) Conditional ??CrossCallReturnLabel_3
          CFI (cfiCond38) R6 load(1, XDATA, add(CFA_XSP16, literal(-10)))
          CFI (cfiCond38) VB load(1, XDATA, add(CFA_XSP16, literal(-9)))
          CFI (cfiCond38) V0 load(1, XDATA, add(CFA_XSP16, literal(-8)))
          CFI (cfiCond38) V1 load(1, XDATA, add(CFA_XSP16, literal(-7)))
          CFI (cfiCond38) R7 load(1, XDATA, add(CFA_XSP16, literal(-6)))
          CFI (cfiCond38) ?RET_LOW load(1, XDATA, add(CFA_XSP16, literal(-5)))
          CFI (cfiCond38) ?RET_HIGH load(1, XDATA, add(CFA_XSP16, literal(-4)))
          CFI (cfiCond38) ?BRET_EXT load(1, XDATA, add(CFA_XSP16, literal(-3)))
          CFI (cfiCond38) DPL0 load(1, XDATA, add(CFA_XSP16, literal(-2)))
          CFI (cfiCond38) DPH0 load(1, XDATA, add(CFA_XSP16, literal(-1)))
          CFI (cfiCond38) CFA_SP SP+-2
          CFI (cfiCond38) CFA_XSP16 add(XSP16, 11)
          CFI Block cfiCond39 Using cfiCommon0
          CFI (cfiCond39) Function MT_UartProcessZToolData
          CFI (cfiCond39) Conditional ??CrossCallReturnLabel_4
          CFI (cfiCond39) R6 load(1, XDATA, add(CFA_XSP16, literal(-10)))
          CFI (cfiCond39) VB load(1, XDATA, add(CFA_XSP16, literal(-9)))
          CFI (cfiCond39) V0 load(1, XDATA, add(CFA_XSP16, literal(-8)))
          CFI (cfiCond39) V1 load(1, XDATA, add(CFA_XSP16, literal(-7)))
          CFI (cfiCond39) R7 load(1, XDATA, add(CFA_XSP16, literal(-6)))
          CFI (cfiCond39) ?RET_LOW load(1, XDATA, add(CFA_XSP16, literal(-5)))
          CFI (cfiCond39) ?RET_HIGH load(1, XDATA, add(CFA_XSP16, literal(-4)))
          CFI (cfiCond39) ?BRET_EXT load(1, XDATA, add(CFA_XSP16, literal(-3)))
          CFI (cfiCond39) DPL0 load(1, XDATA, add(CFA_XSP16, literal(-2)))
          CFI (cfiCond39) DPH0 load(1, XDATA, add(CFA_XSP16, literal(-1)))
          CFI (cfiCond39) CFA_SP SP+-2
          CFI (cfiCond39) CFA_XSP16 add(XSP16, 11)
          CFI Block cfiCond40 Using cfiCommon0
          CFI (cfiCond40) Function MT_UartProcessZToolData
          CFI (cfiCond40) Conditional ??CrossCallReturnLabel_5
          CFI (cfiCond40) R6 load(1, XDATA, add(CFA_XSP16, literal(-10)))
          CFI (cfiCond40) VB load(1, XDATA, add(CFA_XSP16, literal(-9)))
          CFI (cfiCond40) V0 load(1, XDATA, add(CFA_XSP16, literal(-8)))
          CFI (cfiCond40) V1 load(1, XDATA, add(CFA_XSP16, literal(-7)))
          CFI (cfiCond40) R7 load(1, XDATA, add(CFA_XSP16, literal(-6)))
          CFI (cfiCond40) ?RET_LOW load(1, XDATA, add(CFA_XSP16, literal(-5)))
          CFI (cfiCond40) ?RET_HIGH load(1, XDATA, add(CFA_XSP16, literal(-4)))
          CFI (cfiCond40) ?BRET_EXT load(1, XDATA, add(CFA_XSP16, literal(-3)))
          CFI (cfiCond40) DPL0 load(1, XDATA, add(CFA_XSP16, literal(-2)))
          CFI (cfiCond40) DPH0 load(1, XDATA, add(CFA_XSP16, literal(-1)))
          CFI (cfiCond40) CFA_SP SP+-2
          CFI (cfiCond40) CFA_XSP16 add(XSP16, 11)
          CFI Block cfiPicker41 Using cfiCommon1
          CFI (cfiPicker41) NoFunction
          CFI (cfiPicker41) Picker
        MOVX    @DPTR,A
        ; Setup parameters for call to function osal_msg_allocate
        ; Setup parameters for call to function MT_UartCalcFCS
        MOV     DPTR,#LEN_Token
        MOVX    A,@DPTR
        RET
          CFI EndBlock cfiCond37
          CFI EndBlock cfiCond38
          CFI EndBlock cfiCond39
          CFI EndBlock cfiCond40
          CFI EndBlock cfiPicker41

        RSEG BANKED_CODE:CODE:NOROOT(0)
?Subroutine1:
          CFI Block cfiCond42 Using cfiCommon0
          CFI Function MT_UartProcessZToolData
          CFI Conditional ??CrossCallReturnLabel_0
          CFI R6 load(1, XDATA, add(CFA_XSP16, literal(-10)))
          CFI VB load(1, XDATA, add(CFA_XSP16, literal(-9)))
          CFI V0 load(1, XDATA, add(CFA_XSP16, literal(-8)))
          CFI V1 load(1, XDATA, add(CFA_XSP16, literal(-7)))
          CFI R7 load(1, XDATA, add(CFA_XSP16, literal(-6)))
          CFI ?RET_LOW load(1, XDATA, add(CFA_XSP16, literal(-5)))
          CFI ?RET_HIGH load(1, XDATA, add(CFA_XSP16, literal(-4)))
          CFI ?BRET_EXT load(1, XDATA, add(CFA_XSP16, literal(-3)))
          CFI DPL0 load(1, XDATA, add(CFA_XSP16, literal(-2)))
          CFI DPH0 load(1, XDATA, add(CFA_XSP16, literal(-1)))
          CFI CFA_XSP16 add(XSP16, 11)
          CFI Block cfiCond43 Using cfiCommon0
          CFI (cfiCond43) Function MT_UartProcessZToolData
          CFI (cfiCond43) Conditional ??CrossCallReturnLabel_1
          CFI (cfiCond43) R6 load(1, XDATA, add(CFA_XSP16, literal(-10)))
          CFI (cfiCond43) VB load(1, XDATA, add(CFA_XSP16, literal(-9)))
          CFI (cfiCond43) V0 load(1, XDATA, add(CFA_XSP16, literal(-8)))
          CFI (cfiCond43) V1 load(1, XDATA, add(CFA_XSP16, literal(-7)))
          CFI (cfiCond43) R7 load(1, XDATA, add(CFA_XSP16, literal(-6)))
          CFI (cfiCond43) ?RET_LOW load(1, XDATA, add(CFA_XSP16, literal(-5)))
          CFI (cfiCond43) ?RET_HIGH load(1, XDATA, add(CFA_XSP16, literal(-4)))
          CFI (cfiCond43) ?BRET_EXT load(1, XDATA, add(CFA_XSP16, literal(-3)))
          CFI (cfiCond43) DPL0 load(1, XDATA, add(CFA_XSP16, literal(-2)))
          CFI (cfiCond43) DPH0 load(1, XDATA, add(CFA_XSP16, literal(-1)))
          CFI (cfiCond43) CFA_SP SP+-2
          CFI (cfiCond43) CFA_XSP16 add(XSP16, 11)
          CFI Block cfiPicker44 Using cfiCommon1
          CFI (cfiPicker44) NoFunction
          CFI (cfiPicker44) Picker
        MOV     DPTR,#tempDataLen
        MOVX    A,@DPTR
        MOV     R0,A
        LCALL   ?Subroutine7 & 0xFFFF
??CrossCallReturnLabel_13:
        MOVX    A,@DPTR
        ADD     A,R0
        MOV     R2,A
        INC     DPTR
        MOVX    A,@DPTR
        ADDC    A,#0x0
        MOV     DPL,R2
        MOV     DPH,A
        INC     DPTR
        INC     DPTR
        INC     DPTR
        RET
          CFI EndBlock cfiCond42
          CFI EndBlock cfiCond43
          CFI EndBlock cfiPicker44

        RSEG BANKED_CODE:CODE:NOROOT(0)
?Subroutine7:
          CFI Block cfiCond45 Using cfiCommon0
          CFI Function MT_UartProcessZToolData
          CFI Conditional ??CrossCallReturnLabel_12
          CFI R6 load(1, XDATA, add(CFA_XSP16, literal(-10)))
          CFI VB load(1, XDATA, add(CFA_XSP16, literal(-9)))
          CFI V0 load(1, XDATA, add(CFA_XSP16, literal(-8)))
          CFI V1 load(1, XDATA, add(CFA_XSP16, literal(-7)))
          CFI R7 load(1, XDATA, add(CFA_XSP16, literal(-6)))
          CFI ?RET_LOW load(1, XDATA, add(CFA_XSP16, literal(-5)))
          CFI ?RET_HIGH load(1, XDATA, add(CFA_XSP16, literal(-4)))
          CFI ?BRET_EXT load(1, XDATA, add(CFA_XSP16, literal(-3)))
          CFI DPL0 load(1, XDATA, add(CFA_XSP16, literal(-2)))
          CFI DPH0 load(1, XDATA, add(CFA_XSP16, literal(-1)))
          CFI CFA_SP SP+-2
          CFI CFA_XSP16 add(XSP16, 11)
          CFI Block cfiCond46 Using cfiCommon0
          CFI (cfiCond46) Function MT_UartProcessZToolData
          CFI (cfiCond46) Conditional ??CrossCallReturnLabel_13, ??CrossCallReturnLabel_0
          CFI (cfiCond46) R6 load(1, XDATA, add(CFA_XSP16, literal(-10)))
          CFI (cfiCond46) VB load(1, XDATA, add(CFA_XSP16, literal(-9)))
          CFI (cfiCond46) V0 load(1, XDATA, add(CFA_XSP16, literal(-8)))
          CFI (cfiCond46) V1 load(1, XDATA, add(CFA_XSP16, literal(-7)))
          CFI (cfiCond46) R7 load(1, XDATA, add(CFA_XSP16, literal(-6)))
          CFI (cfiCond46) ?RET_LOW load(1, XDATA, add(CFA_XSP16, literal(-5)))
          CFI (cfiCond46) ?RET_HIGH load(1, XDATA, add(CFA_XSP16, literal(-4)))
          CFI (cfiCond46) ?BRET_EXT load(1, XDATA, add(CFA_XSP16, literal(-3)))
          CFI (cfiCond46) DPL0 load(1, XDATA, add(CFA_XSP16, literal(-2)))
          CFI (cfiCond46) DPH0 load(1, XDATA, add(CFA_XSP16, literal(-1)))
          CFI (cfiCond46) CFA_SP SP+-5
          CFI (cfiCond46) CFA_XSP16 add(XSP16, 11)
          CFI Block cfiCond47 Using cfiCommon0
          CFI (cfiCond47) Function MT_UartProcessZToolData
          CFI (cfiCond47) Conditional ??CrossCallReturnLabel_13, ??CrossCallReturnLabel_1
          CFI (cfiCond47) R6 load(1, XDATA, add(CFA_XSP16, literal(-10)))
          CFI (cfiCond47) VB load(1, XDATA, add(CFA_XSP16, literal(-9)))
          CFI (cfiCond47) V0 load(1, XDATA, add(CFA_XSP16, literal(-8)))
          CFI (cfiCond47) V1 load(1, XDATA, add(CFA_XSP16, literal(-7)))
          CFI (cfiCond47) R7 load(1, XDATA, add(CFA_XSP16, literal(-6)))
          CFI (cfiCond47) ?RET_LOW load(1, XDATA, add(CFA_XSP16, literal(-5)))
          CFI (cfiCond47) ?RET_HIGH load(1, XDATA, add(CFA_XSP16, literal(-4)))
          CFI (cfiCond47) ?BRET_EXT load(1, XDATA, add(CFA_XSP16, literal(-3)))
          CFI (cfiCond47) DPL0 load(1, XDATA, add(CFA_XSP16, literal(-2)))
          CFI (cfiCond47) DPH0 load(1, XDATA, add(CFA_XSP16, literal(-1)))
          CFI (cfiCond47) CFA_SP SP+-4
          CFI (cfiCond47) CFA_XSP16 add(XSP16, 11)
          CFI Block cfiPicker48 Using cfiCommon1
          CFI (cfiPicker48) NoFunction
          CFI (cfiPicker48) Picker
        MOV     DPTR,#pMsg
        MOVX    A,@DPTR
        MOV     R2,A
        INC     DPTR
        MOVX    A,@DPTR
        MOV     DPH,A
        MOV     DPL,R2
        INC     DPTR
        INC     DPTR
        RET
          CFI EndBlock cfiCond45
          CFI EndBlock cfiCond46
          CFI EndBlock cfiCond47
          CFI EndBlock cfiPicker48

        RSEG BANK_RELAYS:CODE:REORDER:NOROOT(0)
`??MT_UartInit::?relay`:
        CODE
        LCALL   ?BDISPATCH
        DATA24
        DC24    MT_UartInit

        RSEG BANK_RELAYS:CODE:REORDER:NOROOT(0)
`??MT_UartRegisterTaskID::?relay`:
        CODE
        LCALL   ?BDISPATCH
        DATA24
        DC24    MT_UartRegisterTaskID

        RSEG BANK_RELAYS:CODE:REORDER:NOROOT(0)
`??uartHandleCommand::?relay`:
        CODE
        LCALL   ?BDISPATCH
        DATA24
        DC24    uartHandleCommand

        RSEG BANK_RELAYS:CODE:REORDER:NOROOT(0)
`??MT_UartCalcFCS::?relay`:
        CODE
        LCALL   ?BDISPATCH
        DATA24
        DC24    MT_UartCalcFCS

        RSEG BANK_RELAYS:CODE:REORDER:NOROOT(0)
`??MT_UartProcessZToolData::?relay`:
        CODE
        LCALL   ?BDISPATCH
        DATA24
        DC24    MT_UartProcessZToolData

        RSEG XDATA_ROM_C:CONST:REORDER:NOROOT(0)
        DATA8
`?<Constant "IEEEREQ">`:
        DB "IEEEREQ"

        RSEG XDATA_ROM_C:CONST:REORDER:NOROOT(0)
        DATA16
`?<Constant "0">`:
        DB "0"

        RSEG XDATA_ROM_C:CONST:REORDER:NOROOT(0)
        DATA16
`?<Constant "1">`:
        DB "1"

        RSEG XDATA_ROM_C:CONST:REORDER:NOROOT(0)
        DATA8
`?<Constant "CMDWRONGTYPE">`:
        DB "CMDWRONGTYPE"

        END
//  438 
//  439 #if defined (ZAPP_P1) || defined (ZAPP_P2)
//  440 /***************************************************************************************************
//  441  * @fn      MT_UartProcessZAppData
//  442  *
//  443  * @brief   | SOP | CMD  |   Data Length   | FSC  |
//  444  *          |  1  |  2   |       1         |  1   |
//  445  *
//  446  *          Parses the data and determine either is SPI or just simply serial data
//  447  *          then send the data to correct place (MT or APP)
//  448  *
//  449  * @param   port    - UART port
//  450  *          event   - Event that causes the callback
//  451  *
//  452  *
//  453  * @return  None
//  454  ***************************************************************************************************/
//  455 void MT_UartProcessZAppData ( uint8 port, uint8 event )
//  456 {
//  457 
//  458   osal_event_hdr_t  *msg_ptr;
//  459   uint16 length = 0;
//  460   uint16 rxBufLen  = Hal_UART_RxBufLen(MT_UART_DEFAULT_PORT);
//  461 
//  462   /*
//  463      If maxZAppBufferLength is 0 or larger than current length
//  464      the entire length of the current buffer is returned.
//  465   */
//  466   if ((MT_UartMaxZAppBufLen != 0) && (MT_UartMaxZAppBufLen <= rxBufLen))
//  467   {
//  468     length = MT_UartMaxZAppBufLen;
//  469   }
//  470   else
//  471   {
//  472     length = rxBufLen;
//  473   }
//  474 
//  475   /* Verify events */
//  476   if (event == HAL_UART_TX_FULL)
//  477   {
//  478     // Do something when TX if full
//  479     return;
//  480   }
//  481 
//  482   if (event & ( HAL_UART_RX_FULL | HAL_UART_RX_ABOUT_FULL | HAL_UART_RX_TIMEOUT))
//  483   {
//  484     if ( App_TaskID )
//  485     {
//  486       /*
//  487          If Application is ready to receive and there is something
//  488          in the Rx buffer then send it up
//  489       */
//  490       if ((MT_UartZAppRxStatus == MT_UART_ZAPP_RX_READY ) && (length != 0))
//  491       {
//  492         /* Disable App flow control until it processes the current data */
//  493          MT_UartAppFlowControl (MT_UART_ZAPP_RX_NOT_READY);
//  494 
//  495         /* 2 more bytes are added, 1 for CMD type, other for length */
//  496         msg_ptr = (osal_event_hdr_t *)osal_msg_allocate( length + sizeof(osal_event_hdr_t) );
//  497         if ( msg_ptr )
//  498         {
//  499           msg_ptr->event = SPI_INCOMING_ZAPP_DATA;
//  500           msg_ptr->status = length;
//  501 
//  502           /* Read the data of Rx buffer */
//  503           HalUARTRead( MT_UART_DEFAULT_PORT, (uint8 *)(msg_ptr + 1), length );
//  504 
//  505           /* Send the raw data to application...or where ever */
//  506           osal_msg_send( App_TaskID, (uint8 *)msg_ptr );
//  507         }
//  508       }
//  509     }
//  510   }
//  511 }
//  512 
//  513 /***************************************************************************************************
//  514  * @fn      SPIMgr_ZAppBufferLengthRegister
//  515  *
//  516  * @brief
//  517  *
//  518  * @param   maxLen - Max Length that the application wants at a time
//  519  *
//  520  * @return  None
//  521  *
//  522  ***************************************************************************************************/
//  523 void MT_UartZAppBufferLengthRegister ( uint16 maxLen )
//  524 {
//  525   /* If the maxLen is larger than the RX buff, something is not right */
//  526   if (maxLen <= MT_UART_DEFAULT_MAX_RX_BUFF)
//  527     MT_UartMaxZAppBufLen = maxLen;
//  528   else
//  529     MT_UartMaxZAppBufLen = 1; /* default is 1 byte */
//  530 }
//  531 
//  532 /***************************************************************************************************
//  533  * @fn      SPIMgr_AppFlowControl
//  534  *
//  535  * @brief
//  536  *
//  537  * @param   status - ready to send or not
//  538  *
//  539  * @return  None
//  540  *
//  541  ***************************************************************************************************/
//  542 void MT_UartAppFlowControl ( bool status )
//  543 {
//  544 
//  545   /* Make sure only update if needed */
//  546   if (status != MT_UartZAppRxStatus )
//  547   {
//  548     MT_UartZAppRxStatus = status;
//  549   }
//  550 
//  551   /* App is ready to read again, ProcessZAppData have to be triggered too */
//  552   if (status == MT_UART_ZAPP_RX_READY)
//  553   {
//  554     MT_UartProcessZAppData (MT_UART_DEFAULT_PORT, HAL_UART_RX_TIMEOUT );
//  555   }
//  556 
//  557 }
//  558 
//  559 #endif //ZAPP
//  560 
//  561 /***************************************************************************************************
//  562 ***************************************************************************************************/
// 
// 1 097 bytes in segment BANKED_CODE
//    30 bytes in segment BANK_RELAYS
//    25 bytes in segment XDATA_ROM_C
//    29 bytes in segment XDATA_Z
// 
// 1 127 bytes of CODE  memory
//    25 bytes of CONST memory
//    29 bytes of XDATA memory
//
//Errors: none
//Warnings: 5
